 cod2rad

 Timestamp is 482a146f (Tue May 13 15:21:35 2008)

 Preferred load address is 00400000

 Start         Length     Name                   Class
 0001:00000000 0004e6fcH .text                   CODE
 0001:0004e700 00000051H .text$x                 CODE
 0001:0004e760 0000006cH .text$yc                CODE
 0001:0004e7d0 00000187H .text$yd                CODE
 0002:00000000 000001bcH .idata$5                DATA
 0002:000001bc 00000004H .CRT$XCA                DATA
 0002:000001c0 00000018H .CRT$XCU                DATA
 0002:000001d8 00000004H .CRT$XCZ                DATA
 0002:000001dc 00000004H .CRT$XIA                DATA
 0002:000001e0 00000014H .CRT$XIC                DATA
 0002:000001f4 00000004H .CRT$XIY                DATA
 0002:000001f8 00000004H .CRT$XIZ                DATA
 0002:000001fc 00000004H .CRT$XPA                DATA
 0002:00000200 00000004H .CRT$XPX                DATA
 0002:00000204 00000004H .CRT$XPXA               DATA
 0002:00000208 00000004H .CRT$XPZ                DATA
 0002:0000020c 00000004H .CRT$XTA                DATA
 0002:00000210 00000004H .CRT$XTZ                DATA
 0002:00000220 000213e0H .rdata                  DATA
 0002:00021600 0000003dH .rdata$debug            DATA
 0002:00021640 00000128H .rdata$r                DATA
 0002:00021770 00000020H .rdata$sxdata           DATA
 0002:00021790 00000004H .rtc$IAA                DATA
 0002:00021794 00000004H .rtc$IZZ                DATA
 0002:00021798 00000004H .rtc$TAA                DATA
 0002:0002179c 00000004H .rtc$TZZ                DATA
 0002:000217a0 0000087cH .xdata$x                DATA
 0002:0002201c 0000003cH .idata$2                DATA
 0002:00022058 00000014H .idata$3                DATA
 0002:0002206c 000001bcH .idata$4                DATA
 0002:00022228 000007daH .idata$6                DATA
 0002:00022a02 00000000H .edata                  DATA
 0003:00000000 00007ac4H .data                   DATA
 0003:00007b00 186a5598H .bss                    DATA

  Address         Publics by Value              Rva+Base       Lib:Object

 0000:00000000       __except_list              00000000     <absolute>
 0000:00000008       ___safe_se_handler_count   00000008     <absolute>
 0000:00000000       ___ImageBase               00400000     <linker-defined>
 0001:00000000       ?I_fmin@@YAMMM@Z           00401000 f i aabbtree.obj
 0001:00001000       ?BuildAabbTree@@YAHPBUGenericAabbTreeOptions@@@Z 00402000 f   aabbtree.obj
 0001:00001280       _InitWaterCells            00402280 f   bspfile.obj
 0001:00001a70       _WriteBspFile              00402a70 f   bspfile.obj
 0001:00004af0       ?StripTrailing@@YAXPAD@Z   00405af0 f   bspfile.obj
 0001:00004b30       _ParseEpair                00405b30 f   bspfile.obj
 0001:00004cb0       ?ParseEntity@@YAHPAPBDPAUentity_t@@PAH@Z 00405cb0 f   bspfile.obj
 0001:00004d70       _ParseEntities             00405d70 f   bspfile.obj
 0001:00004dc0       _UnparseEntities           00405dc0 f   bspfile.obj
 0001:00005080       _EPairList_SetKeyValue     00406080 f   bspfile.obj
 0001:00005100       _SetFileExtensionRoot      00406100 f   bspfile.obj
 0001:000051f0       _GetBspFileExtension       004061f0 f   bspfile.obj
 0001:00005220       _GetPolyFileExtension      00406220 f   bspfile.obj
 0001:00005430       _LoadBspFile               00406430 f   bspfile.obj
 0001:00006570       _SetKeyValue               00407570 f   bspfile.obj
 0001:000065a0       ?I_strlen@@YAIPBD@Z        004075a0 f i cmdlib.obj
 0001:000065c0       _Error                     004075c0 f   cmdlib.obj
 0001:000065e0       _SetErrorHandler           004075e0 f   cmdlib.obj
 0001:00006630       _Q_filelength              00407630 f   cmdlib.obj
 0001:00006670       _SafeRead                  00407670 f   cmdlib.obj
 0001:000066d0       _SafeWrite                 004076d0 f   cmdlib.obj
 0001:00006730       _LoadFile                  00407730 f   cmdlib.obj
 0001:000067c0       _StripExtension            004077c0 f   cmdlib.obj
 0001:00006810       _qprintf                   00407810 f   cmdlib.obj
 0001:00006830       ?PreviousFolder@@YAPBDPBD0@Z 00407830 f   cmdlib.obj
 0001:000068e0       _SetQdirFromPath           004078e0 f   cmdlib.obj
 0001:00006aa0       ?Com_PrintError@@YAXHPBDZZ 00407aa0 f   cmdlib.obj
 0001:00006aa0       ?Com_PrintWarning@@YAXHPBDZZ 00407aa0 f   cmdlib.obj
 0001:00006aa0       ?Com_Printf@@YAXHPBDZZ     00407aa0 f   cmdlib.obj
 0001:00006ad0       _InitFileSystem            00407ad0 f   cmdlib_filesystem.obj
 0001:00007350       ?PCL_Usage@@YAXXZ          00408350 f   cmdline.obj
 0001:00007440       ?ParseCommandLine@@YA_NHQAPAD@Z 00408440 f   cmdline.obj
 0001:00007660       ?Com_Error@@YAXW4errorParm_t@@PBDZZ 00408660 f   cod2rad.obj
 0001:000076c0       ?Sys_IsMainThread@@YA_NXZ  004086c0 f   cod2rad.obj
 0001:000076d0       _main                      004086d0 f   cod2rad.obj
 0001:00007850       ?Vec3Lerp@@YAXQBM0MQAM@Z   00408850 f i compile.obj
 0001:00007890       ?Vec3Dot@@YAMQBM0@Z        00408890 f i compile.obj
 0001:00007c40       ?GatherSurfaceIncidentEnergyForLightFromDir@@YAXQBM0QAY02M@Z 00408c40 f i compile.obj
 0001:00007cd0       ?AddLightingForBasisDirs@@YAXPBULightingSampleVars@@QAY02M@Z 00408cd0 f   compile.obj
 0001:00007e90       ?AddSimpleLightmapLighting@@YAXPBULightingSampleVars@@QAM@Z 00408e90 f   compile.obj
 0001:000080e0       ?ApplySkyLightingToSampleVars@@YAXPAULightingSampleVars@@@Z 004090e0 f   compile.obj
 0001:00008cb0       ?Compile@@YAXH@Z           00409cb0 f   compile.obj
 0001:000091d0       ?FindLightingSamplesAndNormalFromPointInDirWithLength@@YA?AW4TraceHitResult@@QBM0M_NPAUWeightedSample@@PAHQAM4@Z 0040a1d0 f   compile.obj
 0001:00009a80       ?FindLightingTransfers@@YA_NHHQBM00QAY02$$CBMMMPAULightingSubSample@@@Z 0040aa80 f   compile.obj
 0001:00009ce0       ?I_fmax@@YAMMM@Z           0040ace0 f i geometry.obj
 0001:00009d20       ?Vec2Compare@@YAHQBM0@Z    0040ad20 f i geometry.obj
 0001:00009d50       ?Vec3Compare@@YAHQBM0@Z    0040ad50 f i geometry.obj
 0001:00009d90       ?Vec3Cross@@YAXQBM0QAM@Z   0040ad90 f i geometry.obj
 0001:00009e20       ?Vec3Normalize@@YAMQAM@Z   0040ae20 f i geometry.obj
 0001:00009ea0       ?Vec4Copy@@YAXQBMQAM@Z     0040aea0 f i geometry.obj
 0001:0000a180       ?AddTriangles@@YAXPBUDiskTriangleSoup@@HPBUorientation_t@@@Z 0040b180 f   geometry.obj
 0001:0000a470       ?AddInvisibleOpaqueTriangle@@YAXPBUMaskedMaterial@@QBM11111@Z 0040b470 f   geometry.obj
 0001:0000abd0       ?SweepPointThroughModelTriangle@@YAXPBUModelCollisionTri@@_NPAUTraceWork@@@Z 0040bbd0 f   geometry.obj
 0001:0000af90       ?TraceWorld@@YAXPAUTraceWork@@@Z 0040bf90 f   geometry.obj
 0001:0000afc0       ?TraceSetup@@YAXQBM000PAUTraceWork@@@Z 0040bfc0 f   geometry.obj
 0001:0000b120       ?GetHitWeightFromSampleMask@@YAMI@Z 0040c120 f   geometry.obj
 0001:0000b1c0       ?GetTraceVisibility@@YAMPBUTraceOutput@@@Z 0040c1c0 f   geometry.obj
 0001:0000b210       ?IsPointOutsideMapBounds@@YA_NQBM@Z 0040c210 f   geometry.obj
 0001:0000b340       ?IsPointInAnyOpaqueBrush@@YA_NQBM@Z 0040c340 f   geometry.obj
 0001:0000b4d0       ?InitGeometry@@YAXXZ       0040c4d0 f   geometry.obj
 0001:0000d8b0       ?SetLightingSampleAreas@@YAXH@Z 0040e8b0 f   geometry.obj
 0001:0000d8d0       ?SetLightingSampleColors@@YAXH@Z 0040e8d0 f   geometry.obj
 0001:0000d8f0       ?BuildLightTransfers@@YAXH@Z 0040e8f0 f   geometry.obj
 0001:0000d950       ?ForEachLightmapPixelInPoly@@YAXP6AXMQBMQAY01$$CBMHPAXH@ZHH@Z 0040e950 f   geometry.obj
 0001:0000ebd0       ?NeedToTraceGridPoint@@YA_NHQBMH@Z 0040fbd0 f   geometry.obj
 0001:0000ee00       ?BuildCollision@@YAXXZ     0040fe00 f   geometry.obj
 0001:0000eff0       ?GetTriangleCount@@YAHXZ   0040fff0 f   geometry.obj
 0001:0000f140       ?SetTriangleType@@YAXPAULitTriangle@@@Z 00410140 f   geometry.obj
 0001:0000f240       ?IsPointAboveMap@@YA_NQBM@Z 00410240 f   geometry.obj
 0001:0000f370       ?IsPointUnderGround@@YA_NQBM@Z 00410370 f   geometry.obj
 0001:0000f3a0       ?Image_ValidateHeader@@YA_NPAUGfxImageFileHeader@@PBD@Z 004103a0 f   gfx_imports.obj
 0001:0000f540       ?AddStaticModelToGroundLitList@@YAXPAUentity_t@@QAY02$$CBMIQBMM2@Z 00410540 f   groundlight.obj
 0001:0000fab0       ?CalculateGroundLightingForAllStaticModels@@YAXXZ 00410ab0 f   groundlight.obj
 0001:0000fb50       ?CosOfSumOfArcCos@@YAMMM@Z 00410b50 f i lightgrid.obj
 0001:0000fbb0       ?Vec3DistanceSq@@YAMQBM0@Z 00410bb0 f i lightgrid.obj
 0001:0000ffc0       ?AddStaticModelLightGridSample@@YAXQBM@Z 00410fc0 f   lightgrid.obj
 0001:000105c0       ?IsWorldSpacePointInLightGrid@@YA_NQBM@Z 004115c0 f   lightgrid.obj
 0001:00010e80       ?GatherIncidentEnergyInSpaceForLightFromDir@@YAXQBM0QAY02M@Z 00411e80 f   lightgrid.obj
 0001:00011020       ?GatherIncidentEnergyInSpaceForCoincidentLight@@YAXQBMQAY02M@Z 00412020 f   lightgrid.obj
 0001:00013070       ??$_Push_heap@PAUGridSamplePoint@@HU1@P6A_NABU1@0@Z@std@@YAXPAUGridSamplePoint@@HHU1@P6A_NABU1@2@Z@Z 00414070 f i lightgrid.obj
 0001:00013120       ??$_Rotate@PAUGridSamplePoint@@HU1@@std@@YAXPAUGridSamplePoint@@00PAH0@Z 00414120 f i lightgrid.obj
 0001:00013250       ??$_Med3@PAUGridSamplePoint@@P6A_NABU1@0@Z@std@@YAXPAUGridSamplePoint@@00P6A_NABU1@1@Z@Z 00414250 f i lightgrid.obj
 0001:00013320       ??$_Adjust_heap@PAUGridSamplePoint@@HU1@P6A_NABU1@0@Z@std@@YAXPAUGridSamplePoint@@HHU1@P6A_NABU1@2@Z@Z 00414320 f i lightgrid.obj
 0001:00013410       ??$_Pop_heap@PAUGridSamplePoint@@HU1@P6A_NABU1@0@Z@std@@YAXPAUGridSamplePoint@@00U1@P6A_NABU1@2@ZPAH@Z 00414410 f i lightgrid.obj
 0001:00013ae0       ??$_Median@PAUGridSamplePoint@@P6A_NABU1@0@Z@std@@YAXPAUGridSamplePoint@@00P6A_NABU1@1@Z@Z 00414ae0 f i lightgrid.obj
 0001:00013b90       ??$_Make_heap@PAUGridSamplePoint@@HU1@P6A_NABU1@0@Z@std@@YAXPAUGridSamplePoint@@0P6A_NABU1@1@ZPAH0@Z 00414b90 f i lightgrid.obj
 0001:00013f20       ??$_Unguarded_partition@PAUGridSamplePoint@@P6A_NABU1@0@Z@std@@YA?AU?$pair@PAUGridSamplePoint@@PAU1@@0@PAUGridSamplePoint@@0P6A_NABU2@1@Z@Z 00414f20 f i lightgrid.obj
 0001:00014200       ??$_Insertion_sort@PAUGridSamplePoint@@P6A_NABU1@0@Z@std@@YAXPAUGridSamplePoint@@0P6A_NABU1@1@Z@Z 00415200 f i lightgrid.obj
 0001:000142a0       ??$_Sort_heap@PAUGridSamplePoint@@P6A_NABU1@0@Z@std@@YAXPAUGridSamplePoint@@0P6A_NABU1@1@Z@Z 004152a0 f i lightgrid.obj
 0001:00014320       ??$_Sort@PAUGridSamplePoint@@HP6A_NABU1@0@Z@std@@YAXPAUGridSamplePoint@@0HP6A_NABU1@1@Z@Z 00415320 f i lightgrid.obj
 0001:000145f0       ?CalculateLightGrid@@YAXH@Z 004155f0 f   lightgrid.obj
 0001:00014820       ??1bad_alloc@std@@UAE@XZ   00415820 f i lighting.obj
 0001:00014830       ??_Gbad_alloc@std@@UAEPAXI@Z 00415830 f i lighting.obj
 0001:00014830       ??_Ebad_alloc@std@@UAEPAXI@Z 00415830 f i lighting.obj
 0001:000148e0       ?RegisterLightmap@@YAXH@Z  004158e0 f   lighting.obj
 0001:00014950       ?InitLightingSamples@@YAXXZ 00415950 f   lighting.obj
 0001:00014a40       ?GetLightingSample@@YAPAULightingSample@@HHH@Z 00415a40 f   lighting.obj
 0001:00014ae0       ?GetLightingSubSample@@YAXHMMPAULightingSubSample@@@Z 00415ae0 f   lighting.obj
 0001:00014c90       ?ForEachUsefulLightingSample@@YAXP6AXPAULightingSample@@H@ZH@Z 00415c90 f   lighting.obj
 0001:00014d30       ?LightingSampleAreasFinished@@YAXXZ 00415d30 f   lighting.obj
 0001:00014f80       ?LightingSampleColorsFinished@@YAXXZ 00415f80 f   lighting.obj
 0001:00014fb0       ?InitBasisDirs@@YAXXZ      00415fb0 f   lighting.obj
 0001:00015130       ?Degamma@@YAMM@Z           00416130 f   lighting.obj
 0001:00015180       ?DegammaColor@@YAXQAM@Z    00416180 f   lighting.obj
 0001:000151c0       ?GammaCorrect@@YAMM@Z      004161c0 f   lighting.obj
 0001:00015230       ?GammaCorrectColor@@YAXQAM@Z 00416230 f   lighting.obj
 0001:00015270       ?EncodeFloatInByte@@YAEM@Z 00416270 f   lighting.obj
 0001:00015c00       ?ReadLightmapSample_Secondary@@YAXHHHQBMQAM@Z 00416c00 f   lighting.obj
 0001:00015cc0       ?ReadLightmapSample_Primary@@YAMHHH@Z 00416cc0 f   lighting.obj
 0001:00015d10       ?AdjustLightingContrast@@YAXHHQAY02M@Z 00416d10 f   lighting.obj
 0001:00016cb0       ?NormalizeLightTransfers@@YAXH@Z 00417cb0 f   lighting.obj
 0001:00016ce0       ?InitBleeding@@YAXXZ       00417ce0 f   lighting.obj
 0001:00016cf0       ?FindBleeding@@YAXH@Z      00417cf0 f   lighting.obj
 0001:00016d00       ?ApplySkyLightingWork@@YAXHH@Z 00417d00 f   lighting.obj
 0001:00016d20       ?ApplySkyLighting@@YAXH@Z  00417d20 f   lighting.obj
 0001:00016d70       ?SaveForRelight@@YAXXZ     00417d70 f   lighting.obj
 0001:00017170       ?LoadForRelight@@YA_NXZ    00418170 f   lighting.obj
 0001:000173a0       ?WasSuppressedLightingSubSample@@YA_NHH@Z 004183a0 f   lighting.obj
 0001:00017440       ?RememberSuppressedLightingSubSample@@YAXHHH@Z 00418440 f   lighting.obj
 0001:00017580       ??0bad_alloc@std@@QAE@ABV01@@Z 00418580 f i lighting.obj
 0001:00017a50       ?BuildFinalLightmaps@@YAXH@Z 00418a50 f   lighting.obj
 0001:00017bc0       ?Lmap_InitBilinearBleeding@@YAXH@Z 00418bc0 f   lightmap_bleed.obj
 0001:00017c20       ?Lmap_FindBilinearBleeding@@YAXH@Z 00418c20 f   lightmap_bleed.obj
 0001:00017c40       ?Lmap_GetBleedWeight_Primary@@YAMHHHHH@Z 00418c40 f   lightmap_bleed.obj
 0001:00017ca0       ?Lmap_GetBleedWeight_SimpleLightmap@@YAMHHHHH@Z 00418ca0 f   lightmap_bleed.obj
 0001:00017ca0       ?Lmap_GetBleedWeight_Secondary@@YAMHHHHH@Z 00418ca0 f   lightmap_bleed.obj
 0001:00018370       ?SetupLinearMapping@@YA_NQBM000PAULinearMappingSolver@@@Z 00419370 f   linearmapping.obj
 0001:00018400       ?SolveLinearMapping@@YAXPBULinearMappingSolver@@MMMQAM@Z 00419400 f   linearmapping.obj
 0001:00018470       ?I_fclamp@@YAMMMM@Z        00419470 f i mapio.obj
 0001:00019660       ?Map_Read@@YA_NPBD@Z       0041a660 f   mapio.obj
 0001:000196d0       ?Map_Write@@YAXPBD@Z       0041a6d0 f   mapio.obj
 0001:000199f0       ?RegisterMaskedMaterial@@YAPBUMaskedMaterial@@PBDI@Z 0041a9f0 f   maskedmaterial.obj
 0001:0001a040       ?MtlRaw_Register@@YAPBULoadedMaterial@@PBDI@Z 0041b040 f   materials.obj
 0001:0001a190       ?MatrixTransformVector@@YAXQBMQAY02$$CBMQAM@Z 0041b190 f i modelcollision.obj
 0001:0001a360       ?BuildModelCollision@@YAXQBM0@Z 0041b360 f   modelcollision.obj
 0001:0001a670       ?BuildStaticModelCollisionMesh@@YAPBUModelCollisionMesh@@PBUXModel@@@Z 0041b670 f   modelcollision.obj
 0001:0001aaf0       ?AddStaticModelCollision@@YAXPBUXModel@@QBMPBUorientation_t@@_N@Z 0041baf0 f   modelcollision.obj
 0001:0001b080       ?TraceStaticModels@@YAXPAUTraceWork@@@Z 0041c080 f   modelcollision.obj
 0001:0001b0f0       ??$_Destroy_range@UGridPoint@@V?$allocator@UGridPoint@@@std@@@std@@YAXPAUGridPoint@@0AAV?$allocator@UGridPoint@@@0@U_Nonscalar_ptr_iterator_tag@0@@Z 0041c0f0 f i oldgrid.obj
 0001:0001b150       ??$_Destroy_range@UCellData@@V?$allocator@UCellData@@@std@@@std@@YAXPAUCellData@@0AAV?$allocator@UCellData@@@0@U_Nonscalar_ptr_iterator_tag@0@@Z 0041c150 f i oldgrid.obj
 0001:0001b430       ?AddPointLight@@YAXHQBMM0PBD@Z 0041c430 f   pointlights.obj
 0001:0001b460       ?AddSpotLight@@YAXHQBMM0PBD0MMH@Z 0041c460 f   pointlights.obj
 0001:0001b4d0       ?GetPointLightCount@@YAHXZ 0041c4d0 f   pointlights.obj
 0001:0001b4e0       ?PointLightEvaluatePoint@@YA?AW4LightInfluenceType@@HHQBM000QAM1PAM@Z 0041c4e0 f   pointlights.obj
 0001:0001bec0       ?GetPrimaryLightAttenuation@@YAMHQBM0@Z 0041cec0 f   pointlights.obj
 0001:0001bf20       ?AreaX2AndCentroidFor2dPoly@@YA?BMQAY01$$CBMHQAM@Z 0041cf20 f   poly2d.obj
 0001:0001c0e0       ?Split2dPolyAlongAxis@@YAXQAY01$$CBMHHMQAY01MPAH12@Z 0041d0e0 f   poly2d.obj
 0001:0001c4b0       ?ForEach2dArea@@YAXQAY1O@1MHHHMMMMP6AXMQBMQAY01$$CBMHPAXH@Z3@Z 0041d4b0 f   poly2d.obj
 0001:0001c710       ?Map_ReadPolyFile@@YAXPBD@Z 0041d710 f   polyfile.obj
 0001:0001c9d0       ?FreeWinding@@YAXPAUwinding_t@@@Z 0041d9d0 f   polylib.obj
 0001:0001c9e0       ?BaseWindingForPlane@@YAPAUwinding_t@@QBMM@Z 0041d9e0 f   polylib.obj
 0001:0001cc80       ?CopyWinding@@YAPAUwinding_t@@PBU1@@Z 0041dc80 f   polylib.obj
 0001:0001cce0       ?ClipWindingEpsilonInPlace@@YA?AW4SideClassification@@PBUwinding_t@@QBMMMPAPAU2@2@Z 0041dce0 f   polylib.obj
 0001:0001d1f0       ?ClipWindingEpsilon@@YA?AW4SideClassification@@PBUwinding_t@@QBMMMPAPAU2@2H@Z 0041e1f0 f   polylib.obj
 0001:0001d270       ?ChopWindingInPlace@@YAXPAPAUwinding_t@@QBMMM@Z 0041e270 f   polylib.obj
 0001:0001d550       ?PrintMsg@@YAXPBDZZ        0041e550 f   print.obj
 0001:0001d580       ?WarningMsg@@YAXHPBDZZ     0041e580 f   print.obj
 0001:0001d5b0       ?ErrorMsgV@@YAXPBDPAD@Z    0041e5b0 f   print.obj
 0001:0001d610       ?ErrorMsg@@YAXPBDZZ        0041e610 f   print.obj
 0001:0001d630       ?PrintMsecDuration@@YAXH@Z 0041e630 f   print.obj
 0001:0001d6d0       ?UpdateProgressPrint@@YAXXZ 0041e6d0 f   print.obj
 0001:0001d7e0       ?BeginProgress@@YAXPBD@Z   0041e7e0 f   print.obj
 0001:0001d830       ?SetProgress@@YAXHH@Z      0041e830 f   print.obj
 0001:0001d850       ?UpdateProgress@@YAXH@Z    0041e850 f   print.obj
 0001:0001d870       ?EndProgress@@YAXXZ        0041e870 f   print.obj
 0001:0001d8b0       _PlatformSelect            0041e8b0 f   targetplatform.obj
 0001:0001d950       ?ListPlatformCmdLineOptions@@YAXXZ 0041e950 f   targetplatform.obj
 0001:0001d980       _IsPlatformValid           0041e980 f   targetplatform.obj
 0001:0001da90       ?ForEachQuantum@@YAXHP6AXHH@ZH@Z 0041ea90 f   threads.obj
 0001:0001daf0       ?AcquireThreadLock@@YAXPBX@Z 0041eaf0 f   threads.obj
 0001:0001db60       ?ReleaseThreadLock@@YAXPBX@Z 0041eb60 f   threads.obj
 0001:0001dba0       ?CM_CalcTraceExtents@@YAXPAUTraceExtents@@@Z 0041eba0 f   cm_tracebox.obj
 0001:0001dc30       ?CM_TraceBox@@YAHPBUTraceExtents@@QBM1M@Z 0041ec30 f   cm_tracebox.obj
 0001:0001de00       ?LocalConvertQuatToMat@@YAXPBUDObjAnimMat@@QAY02M@Z 0041ee00 f i dobj.obj
 0001:0001e750       ?DObjCreate@@YAXPAUDObjModel_s@@IPAUXAnimTree_s@@PAXI@Z 0041f750 f   dobj.obj
 0001:0001e840       ?DObjFree@@YAXPAUDObj_s@@@Z 0041f840 f   dobj.obj
 0001:0001e920       ?DObjGetSurface@@YAPAUXSurface@@PBUDObj_s@@HHH@Z 0041f920 f   dobj.obj
 0001:0001e9a0       ?DObjGetSurfaceName@@YAPBDPAUDObj_s@@HHH@Z 0041f9a0 f   dobj.obj
 0001:0001ea50       ?DObjGetBoneName@@YAPBDPBUDObj_s@@H@Z 0041fa50 f   dobj.obj
 0001:0001eb20       ?DObjCalcAnim@@YAXPBUDObj_s@@QAH@Z 0041fb20 f   dobj.obj
 0001:0001ed10       ?DObjDumpInfo@@YAXPBUDObj_s@@@Z 0041fd10 f   dobj.obj
 0001:0001ee60       ?LocalQuatMultiplyEquals@@YAXQBMQAM@Z 0041fe60 f i dobj_skel.obj
 0001:0001ef10       ?LocalMatrixTransformVectorQuatTransEquals@@YAXPBUDObjAnimMat@@QAM@Z 0041ff10 f i dobj_skel.obj
 0001:0001ef90       ?LocalQuatMultiplyReverseEquals@@YAXQBMQAM@Z 0041ff90 f i dobj_skel.obj
 0001:0001f040       ?LocalQuatMultiplyReverseInverse@@YAXQBM0QAM@Z 00420040 f i dobj_skel.obj
 0001:0001fd70       ?DObjCalcSkel@@YAXPBUDObj_s@@QAH@Z 00420d70 f   dobj_skel.obj
 0001:00020090       ?DObjGetSurfaces@@YAHPBUDObj_s@@QAHQBD@Z 00421090 f   dobj_utils.obj
 0001:00020240       ?DObjCreateSkel@@YAXPBUDObj_s@@PADH@Z 00421240 f   dobj_utils.obj
 0001:000202f0       ?XModelReadSurface@@YAXPAUXModel@@PAPBEP6APAXH@ZPAUXSurface@@H@Z 004212f0 f   r_xsurface_load_obj.obj
 0001:000214d0       ?MT_Init@@YAXXZ            004224d0 f   scr_memorytree.obj
 0001:00021620       ?MT_AllocIndex@@YAGHH@Z    00422620 f   scr_memorytree.obj
 0001:00021830       ?MT_FreeIndex@@YAXIH@Z     00422830 f   scr_memorytree.obj
 0001:000219f0       ?MT_Alloc@@YAPAXHH@Z       004229f0 f   scr_memorytree.obj
 0001:00021a20       ?MT_Free@@YAXPAXH@Z        00422a20 f   scr_memorytree.obj
 0001:00021af0       ?SL_ConvertToString@@YAPBDI@Z 00422af0 f   scr_stringlist.obj
 0001:00021b10       ?SL_DebugConvertToString@@YAPBDI@Z 00422b10 f   scr_stringlist.obj
 0001:00021bd0       ?SL_Init@@YAXXZ            00422bd0 f   scr_stringlist.obj
 0001:00021cc0       _SL_GetStringOfSize        00422cc0 f   scr_stringlist.obj
 0001:00022590       ?SL_RemoveRefToStringOfSize@@YAXII@Z 00423590 f   scr_stringlist.obj
 0001:000225c0       ?Vec4Compare@@YAHQBM0@Z    004235c0 f i xmodel.obj
 0001:00022610       ?XModelBad@@YAHPBUXModel@@@Z 00423610 f   xmodel.obj
 0001:00022640       ?XModelPartsFindData@@YAPAUXModelPartsLoad@@PBD@Z 00423640 f   xmodel.obj
 0001:00022660       ?XModelPartsSetData@@YAXPBDPAUXModelPartsLoad@@P6APAXH@Z@Z 00423660 f   xmodel.obj
 0001:00022680       ?XModelSurfsFindData@@YAPAUXModelSurfs@@PBD@Z 00423680 f   xmodel.obj
 0001:000226a0       ?XModelSurfsSetData@@YAXPBDPAUXModelSurfs@@P6APAXH@Z@Z 004236a0 f   xmodel.obj
 0001:000226c0       ?XModelPrecache@@YAPAUXModel@@PBDP6APAXH@Z1@Z 004236c0 f   xmodel.obj
 0001:00022710       ?XModelGetRadius@@YAMPBUXModel@@@Z 00423710 f   xmodel.obj
 0001:00022720       ?QuatMultiply@@YAXPBM0PAM@Z 00423720 f i xmodel_load_obj.obj
 0001:00023440       ?XModelCopyXModelParts@@YAXPBUXModelPartsLoad@@PAUXModel@@@Z 00424440 f   xmodel_load_obj.obj
 0001:00023800       ?R_GetXModelBounds@@YAXPAUXModel@@QAY02$$CBMQAM2@Z 00424800 f   xmodel_load_obj.obj
 0001:00024190       ?R_GetXModelSamplePoints@@YAIPBUXModel@@QAY02MI@Z 00425190 f   xmodel_load_obj.obj
 0001:00024c80       ?XModelLoad@@YAPAUXModel@@PBDP6APAXH@Z1@Z 00425c80 f   xmodel_load_obj.obj
 0001:00024ca0       ?XModelGetName@@YAPBDPBUXModel@@@Z 00425ca0 f   xmodel_utils.obj
 0001:00024cd0       ?XModelGetSurfaces@@YAHPBUXModel@@PAPAUXSurface@@H@Z 00425cd0 f   xmodel_utils.obj
 0001:00024dc0       ?XModelGetSurfCount@@YAIPBUXModel@@H@Z 00425dc0 f   xmodel_utils.obj
 0001:00024e20       ?XModelNumBones@@YAHPBUXModel@@@Z 00425e20 f   xmodel_utils.obj
 0001:00024e30       ?XModelGetBoneIndex@@YAHPBUXModel@@IIPAE@Z 00425e30 f   xmodel_utils.obj
 0001:00024ef0       ?XModelGetBasePose@@YAPBUDObjAnimMat@@PBUXModel@@@Z 00425ef0 f   xmodel_utils.obj
 0001:00025ba0       ?Assert_DoStackTrace@@YAHPADHH@Z 00426ba0 f   assertive.obj
 0001:00025e30       _Assert_MyHandler          00426e30 f   assertive.obj
 0001:00025fc0       ?FS_HashFileName@@YAJPBDH@Z 00426fc0 f   com_files.obj
 0001:00026020       ?FS_HandleForFile@@YAHW4FsThread@@@Z 00427020 f   com_files.obj
 0001:00026160       ?FS_FileForHandle@@YAPAU_iobuf@@H@Z 00427160 f   com_files.obj
 0001:000261f0       ?FS_filelength@@YAHH@Z     004271f0 f   com_files.obj
 0001:00026290       ?FS_ReplaceSeparators@@YAXPAD@Z 00427290 f   com_files.obj
 0001:00026410       ?FS_CreatePath@@YAHPAD@Z   00427410 f   com_files.obj
 0001:00026480       ?FS_CopyFile@@YAXPAD0@Z    00427480 f   com_files.obj
 0001:00026560       ?FS_FCloseFile@@YAXH@Z     00427560 f   com_files.obj
 0001:00026680       ?FS_FilenameCompare@@YAHPBD0@Z 00427680 f   com_files.obj
 0001:00026ef0       ?FS_Read@@YAHPAXHH@Z       00427ef0 f   com_files.obj
 0001:00026fe0       _FS_ReadFile               00427fe0 f   com_files.obj
 0001:000270a0       _FS_FreeFile               004280a0 f   com_files.obj
 0001:00027490       ?FS_PathCmp@@YAHPBD0@Z     00428490 f   com_files.obj
 0001:00027520       ?FS_DisplayPath@@YAXH@Z    00428520 f   com_files.obj
 0001:00027d40       ?FS_Startup@@YAXPBD@Z      00428d40 f   com_files.obj
 0001:000282a0       ?FS_InitFilesystem@@YAXXZ  004292a0 f   com_files.obj
 0001:00028300       ?PointOnSphereFromUniformDeviates@@YAXMMQAM@Z 00429300 f   com_math.obj
 0001:00028380       ?UniformPointsInCircle@@YAXIPAXI@Z 00429380 f   com_math.obj
 0001:00028490       ?UniformPointsOnHemisphere@@YAXIPAXI@Z 00429490 f   com_math.obj
 0001:000285a0       ?UniformPointsOnSphere@@YAXIPAXI@Z 004295a0 f   com_math.obj
 0001:000286d0       ?Vec2DistanceSq@@YAMQBM0@Z 004296d0 f   com_math.obj
 0001:00028710       ?Vec3MajorAxis@@YAHQBM@Z   00429710 f   com_math.obj
 0001:00028790       ?Vec2Normalize@@YAMQAM@Z   00429790 f   com_math.obj
 0001:00028800       ?Vec3NormalizeTo@@YAMQBMQAM@Z 00429800 f   com_math.obj
 0001:00028880       ?Vec3Max@@YAMQBM@Z         00429880 f   com_math.obj
 0001:000288d0       ?MatrixInverse@@YAXQAY02$$CBMQAY02M@Z 004298d0 f   com_math.obj
 0001:00028a30       _ClearBounds               00429a30 f   com_math.obj
 0001:00028a60       ?ClearBounds2D@@YAXQAM0@Z  00429a60 f   com_math.obj
 0001:00028a90       ?AddPointToBounds@@YAXQBMQAM1@Z 00429a90 f   com_math.obj
 0001:00028b20       ?AddPointToBounds2D@@YAXQBMQAM1@Z 00429b20 f   com_math.obj
 0001:00028b80       ?PointInBounds@@YAHQBM00@Z 00429b80 f   com_math.obj
 0001:00028c60       ?ExpandBounds@@YAXQBM0QAM1@Z 00429c60 f   com_math.obj
 0001:00028cf0       _GetRotatedBounds          00429cf0 f   com_math.obj
 0001:00028db0       ?DistanceFromConeToPoint@@YAMQBM0M0@Z 00429db0 f   com_math.obj
 0001:00028f70       ?AngleVectors@@YAXQBMQAM11@Z 00429f70 f   com_math_anglevectors.obj
 0001:000290b0       ?AnglesToAxis@@YAXQBMQAY02M@Z 0042a0b0 f   com_math_anglevectors.obj
 0001:000291c0       _Z_VirtualReserve          0042a1c0 f   com_memory.obj
 0001:000292a0       _Z_VirtualCommitInternal   0042a2a0 f   com_memory.obj
 0001:00029300       _Z_FreeInternal            0042a300 f   com_memory.obj
 0001:00029360       _Z_MallocInternal          0042a360 f   com_memory.obj
 0001:000293a0       _CopyStringInternal        0042a3a0 f   com_memory.obj
 0001:00029420       _FreeStringInternal        0042a420 f   com_memory.obj
 0001:000294a0       _Hunk_FindDataForFile      0042a4a0 f   com_memory.obj
 0001:000294d0       _Hunk_SetDataForFile       0042a4d0 f   com_memory.obj
 0001:000295c0       _Hunk_AllocateTempMemoryInternal 0042a5c0 f   com_memory.obj
 0001:000296e0       _Hunk_FreeTempMemory       0042a6e0 f   com_memory.obj
 0001:000297b0       ?Hunk_UserCreate@@YAPAUHunkUser@@HPBD_N11H@Z 0042a7b0 f   com_memory.obj
 0001:00029890       ?Hunk_UserAlloc@@YAPAXPAUHunkUser@@HH@Z 0042a890 f   com_memory.obj
 0001:00029a50       ?Hunk_UserDestroy@@YAXPAUHunkUser@@@Z 0042aa50 f   com_memory.obj
 0001:00029a90       ?Hunk_CopyString@@YAPADPAUHunkUser@@PBD@Z 0042aa90 f   com_memory.obj
 0001:00029ae0       ?Vec3PackUnitVec@@YA?ATPackedUnitVec@@QBM@Z 0042aae0 f   com_pack.obj
 0001:00029b70       ?Vec3UnpackUnitVec@@YAXTPackedUnitVec@@QAM@Z 0042ab70 f   com_pack.obj
 0001:00029be0       ?Vec2PackTexCoords@@YA?ATPackedTexCoords@@QBM@Z 0042abe0 f   com_pack.obj
 0001:00029c80       ?Vec2UnpackTexCoords@@YAXTPackedTexCoords@@QAM@Z 0042ac80 f   com_pack.obj
 0001:00029d20       ?Com_Filter@@YA_NPBD0H@Z   0042ad20 f   com_shared.obj
 0001:00029f70       ?Com_FilterPath@@YA_NPBD0H@Z 0042af70 f   com_shared.obj
 0001:0002a020       ?_copyDWord@@YAXPAIII@Z    0042b020 f   com_shared.obj
 0001:0002a0b0       ?Com_Memset@@YAXPAXHH@Z    0042b0b0 f   com_shared.obj
 0001:0002a160       _Com_Memcpy                0042b160 f   com_shared.obj
 0001:0002aed0       ?Dvar_DisplayableResetValue@@YAPBDPBUdvar_s@@@Z 0042bed0 f   dvar.obj
 0001:0002af20       ?Dvar_DisplayableLatchedValue@@YAPBDPBUdvar_s@@@Z 0042bf20 f   dvar.obj
 0001:0002b270       ?Dvar_ValueInDomain@@YA_NETDvarValue@@TDvarLimits@@@Z 0042c270 f   dvar.obj
 0001:0002b8d0       ?Dvar_PrintDomain@@YAXETDvarLimits@@@Z 0042c8d0 f   dvar.obj
 0001:0002c140       ?Dvar_FindVar@@YAPBUdvar_s@@PBD@Z 0042d140 f   dvar.obj
 0001:0002c190       ?Dvar_ClearModified@@YAXPBUdvar_s@@@Z 0042d190 f   dvar.obj
 0001:0002cff0       ?Dvar_RegisterBool@@YAPBUdvar_s@@PBD_NG0@Z 0042dff0 f   dvar.obj
 0001:0002d060       ?Dvar_RegisterInt@@YAPBUdvar_s@@PBDHHHG0@Z 0042e060 f   dvar.obj
 0001:0002d0c0       ?Dvar_RegisterString@@YAPBUdvar_s@@PBD0G0@Z 0042e0c0 f   dvar.obj
 0001:0002d2e0       ?Dvar_SetStringByName@@YAXPBD0@Z 0042e2e0 f   dvar.obj
 0001:0002d330       ?Dvar_Init@@YAXXZ          0042e330 f   dvar.obj
 0001:0002d360       ?Com_BeginParseSession@@YAXPBD@Z 0042e360 f   q_parse.obj
 0001:0002d440       ?Com_EndParseSession@@YAXXZ 0042e440 f   q_parse.obj
 0001:0002d960       ?Com_Parse@@YAPBDPAPBD@Z   0042e960 f   q_parse.obj
 0001:0002d9b0       ?Com_ParseOnLine@@YAPBDPAPBD@Z 0042e9b0 f   q_parse.obj
 0001:0002da00       ?Com_AssembleFilepath@@YAXPBD00PADH@Z 0042ea00 f   q_shared.obj
 0001:0002db60       ?Com_GetExtensionSubString@@YAPBDPBD@Z 0042eb60 f   q_shared.obj
 0001:0002dbc0       ?Com_StripExtension@@YAXPBDPAD@Z 0042ebc0 f   q_shared.obj
 0001:0002dc00       ?LittleLong@@YAHH@Z        0042ec00 f   q_shared.obj
 0001:0002dc10       ?ShortSwap@@YAFF@Z         0042ec10 f   q_shared.obj
 0001:0002dc30       ?ShortNoSwap@@YAFF@Z       0042ec30 f   q_shared.obj
 0001:0002dc40       ?LongSwap@@YAHH@Z          0042ec40 f   q_shared.obj
 0001:0002dc70       ?Long64Swap@@YA_K_K@Z      0042ec70 f   q_shared.obj
 0001:0002dd80       ?Long64NoSwap@@YA_K_K@Z    0042ed80 f   q_shared.obj
 0001:0002dd90       ?FloatReadSwap@@YAMH@Z     0042ed90 f   q_shared.obj
 0001:0002ddc0       ?FloatReadNoSwap@@YAMH@Z   0042edc0 f   q_shared.obj
 0001:0002ddd0       ?FloatWriteSwap@@YAHM@Z    0042edd0 f   q_shared.obj
 0001:0002de00       ?LongNoSwap@@YAHH@Z        0042ee00 f   q_shared.obj
 0001:0002de00       ?FloatWriteNoSwap@@YAHM@Z  0042ee00 f   q_shared.obj
 0001:0002de10       ?Swap_Init@@YAXXZ          0042ee10 f   q_shared.obj
 0001:0002dec0       ?I_islower@@YA_NH@Z        0042eec0 f   q_shared.obj
 0001:0002dee0       ?I_strncpyz@@YAXPADPBDH@Z  0042eee0 f   q_shared.obj
 0001:0002df70       ?I_strnicmp@@YAHPBD0H@Z    0042ef70 f   q_shared.obj
 0001:0002dfd0       ?I_strncmp@@YAHPBD0H@Z     0042efd0 f   q_shared.obj
 0001:0002e020       ?I_stristr@@YAPBDPBD0@Z    0042f020 f   q_shared.obj
 0001:0002e0f0       ?I_stricmp@@YAHPBD0@Z      0042f0f0 f   q_shared.obj
 0001:0002e150       ?I_stricmpwild@@YAHPBD0@Z  0042f150 f   q_shared.obj
 0001:0002e220       ?I_strlwr@@YAPADPAD@Z      0042f220 f   q_shared.obj
 0001:0002e250       ?Com_sprintf@@YAHPADHPBDZZ 0042f250 f   q_shared.obj
 0001:0002e280       ?CanKeepStringPointer@@YAHPBD@Z 0042f280 f   q_shared.obj
 0001:0002e2c0       ?va@@YAPADPBDZZ            0042f2c0 f   q_shared.obj
 0001:0002e340       ?OrientationPosToWorldPos@@YAXPBUorientation_t@@QBMQAM@Z 0042f340 f   q_shared.obj
 0001:0002e3d0       ?OrientationDirToWorldDir@@YAXPBUorientation_t@@QBMQAM@Z 0042f3d0 f   q_shared.obj
 0001:0002e450       ?Com_IsLegacyXModelName@@YAHPBD@Z 0042f450 f   q_shared.obj
 0001:0002e490       ?Sys_Mkdir@@YAXPBD@Z       0042f490 f   win_common.obj
 0001:0002e4a0       ?Sys_Cwd@@YAPBDXZ          0042f4a0 f   win_common.obj
 0001:0002e4c0       ?Sys_DefaultCDPath@@YAPBDXZ 0042f4c0 f   win_common.obj
 0001:0002e4d0       ?Sys_DefaultHomePath@@YAPBDXZ 0042f4d0 f   win_common.obj
 0001:0002e710       ?Sys_ListFiles@@YAPAPADPBD00PAHH@Z 0042f710 f   win_common.obj
 0001:0002ea00       ?Sys_FreeFileList@@YAXPAPAD@Z 0042fa00 f   win_common.obj
 0001:0002ea20       ?Sys_DirectoryHasContents@@YAHPBD@Z 0042fa20 f   win_common.obj
 0001:0002eb10       _z_1_1_4_adler32           0042fb10 f   adler32.obj
 0001:0002f970       _inflate_blocks_reset      00430970 f   infblock.obj
 0001:0002f9f0       _inflate_blocks_new        004309f0 f   infblock.obj
 0001:0002faa0       _inflate_blocks            00430aa0 f   infblock.obj
 0001:00030560       _inflate_blocks_free       00431560 f   infblock.obj
 0001:000305f0       _inflate_codes_new         004315f0 f   infcodes.obj
 0001:00030630       _inflate_codes             00431630 f   infcodes.obj
 0001:00030cd0       _inflate_codes_free        00431cd0 f   infcodes.obj
 0001:00030cf0       _z_1_1_4_inflate_fast      00431cf0 f   inffast.obj
 0001:000310a0       _z_1_1_4_inflateReset      004320a0 f   inflate.obj
 0001:000310f0       _z_1_1_4_inflateEnd        004320f0 f   inflate.obj
 0001:00031140       _z_1_1_4_inflateInit2_     00432140 f   inflate.obj
 0001:00031240       _z_1_1_4_inflate           00432240 f   inflate.obj
 0001:00031ae0       _inflate_trees_bits        00432ae0 f   inftrees.obj
 0001:00031b80       _inflate_trees_dynamic     00432b80 f   inftrees.obj
 0001:00031d00       _inflate_trees_fixed       00432d00 f   inftrees.obj
 0001:00031d30       _inflate_flush             00432d30 f   infutil.obj
 0001:00033300       __tr_stored_block          00434300 f   trees.obj
 0001:000333a0       __tr_flush_block           004343a0 f   trees.obj
 0001:000336b0       _unzReOpen                 004346b0 f   unzip.obj
 0001:00033700       _unzGetGlobalInfo          00434700 f   unzip.obj
 0001:00033ad0       _unzGetCurrentFileInfo     00434ad0 f   unzip.obj
 0001:00033b10       _unzGoToFirstFile          00434b10 f   unzip.obj
 0001:00033b60       _unzGoToNextFile           00434b60 f   unzip.obj
 0001:00033bd0       _unzGetCurrentFileInfoPosition 00434bd0 f   unzip.obj
 0001:00033bf0       _unzSetCurrentFileInfoPosition 00434bf0 f   unzip.obj
 0001:00033df0       _unzReadCurrentFile        00434df0 f   unzip.obj
 0001:00033f50       _unzCloseCurrentFile       00434f50 f   unzip.obj
 0001:00033fb0       _unzOpen                   00434fb0 f   unzip.obj
 0001:00034140       _unzClose                  00435140 f   unzip.obj
 0001:00034180       _unzOpenCurrentFile        00435180 f   unzip.obj
 0001:000342a0       _z_1_1_4_zcalloc           004352a0 f   zutil.obj
 0001:000342c0       _z_1_1_4_zcfree            004352c0 f   zutil.obj
 0001:00034470       ?Wavelet_DecompressLevel@@YAXPAE0PAUWaveletDecode@@@Z 00435470 f   r_image_wavelet.obj
 0001:00035f00       ?Image_GetRawPixels@@YAXPBDPAUGfxRawImage@@@Z 00436f00 f   r_imagedecode.obj
 0001:000361a0       ?R_GetLightDefImages@@YA_NPBDPAUGfxRawImage@@@Z 004371a0 f   r_light_load_obj.obj
 0001:00036220       ?XSurfaceGetNumVerts@@YAHPBUXSurface@@@Z 00437220 f   r_xsurface.obj
 0001:00036250       ?XSurfaceGetNumTris@@YAHPBUXSurface@@@Z 00437250 f   r_xsurface.obj
 0001:00036280       ?XSurfaceGetTris@@YAXPBUXSurface@@PAGG@Z 00437280 f   r_xsurface.obj
 0001:00036360       ?XSurfaceGetVerts@@YAXPBUXSurface@@PAM11@Z 00437360 f   r_xsurface.obj
 0001:00036400       ?XSurfaceTransfer@@YAXPBUXVertexBuffer@@PAUGfxPackedVertex@@1H@Z 00437400 f   r_xsurface.obj
 0001:00036750       ?Com_BlockChecksumKey32@@YAIPBXII@Z 00437750 f   md4.obj
 0001:000367fc       __fpclear                  004377fc f   LIBCMT:fpinit.obj
 0001:000367fc       __initp_misc_winxfltr      004377fc f   LIBCMT:winxfltr.obj
 0001:000367fd       __cfltcvt_init             004377fd f   LIBCMT:fpinit.obj
 0001:0003685d       __fpmath                   0043785d f   LIBCMT:fpinit.obj
 0001:00036940       _qsort                     00437940 f   LIBCMT:qsort.obj
 0001:00036be7       ??3@YAXPAX@Z               00437be7 f   LIBCMT:delete.obj
 0001:00036bec       ??0bad_alloc@std@@QAE@XZ   00437bec f i LIBCMT:new.obj
 0001:00036c05       ??2@YAPAXI@Z               00437c05 f   LIBCMT:new.obj
 0001:00036c70       __alloca_probe             00437c70     LIBCMT:chkstk.obj
 0001:00036c70       __chkstk                   00437c70 f   LIBCMT:chkstk.obj
 0001:00036ca0       _memcpy                    00437ca0 f   LIBCMT:memcpy.obj
 0001:00037005       _realloc                   00438005 f   LIBCMT:realloc.obj
 0001:00037220       __recalloc                 00438220 f   LIBCMT:realloc.obj
 0001:00037299       _free                      00438299 f   LIBCMT:free.obj
 0001:00037327       ??0_LocaleUpdate@@QAE@PAUlocaleinfo_struct@@@Z 00438327 f i LIBCMT:_ctype.obj
 0001:000373a9       __isalpha_l                004383a9 f i LIBCMT:_ctype.obj
 0001:000373fd       _isalpha                   004383fd f i LIBCMT:_ctype.obj
 0001:00037428       __isdigit_l                00438428 f i LIBCMT:_ctype.obj
 0001:00037477       _isdigit                   00438477 f i LIBCMT:_ctype.obj
 0001:000374a0       __isxdigit_l               004384a0 f i LIBCMT:_ctype.obj
 0001:000374f4       _isxdigit                  004384f4 f i LIBCMT:_ctype.obj
 0001:0003751f       __isspace_l                0043851f f i LIBCMT:_ctype.obj
 0001:0003756e       _isspace                   0043856e f i LIBCMT:_ctype.obj
 0001:00037597       __isalnum_l                00438597 f i LIBCMT:_ctype.obj
 0001:000375eb       _isalnum                   004385eb f i LIBCMT:_ctype.obj
 0001:00037616       __isprint_l                00438616 f i LIBCMT:_ctype.obj
 0001:0003766a       _isprint                   0043866a f i LIBCMT:_ctype.obj
 0001:000376a0       _memset                    004386a0 f   LIBCMT:memset.obj
 0001:0003771a       @__security_check_cookie@4 0043871a f   LIBCMT:secchk.obj
 0001:00037729       __amsg_exit                00438729 f   LIBCMT:crt0dat.obj
 0001:0003774d       ___crtCorExitProcess       0043874d f   LIBCMT:crt0dat.obj
 0001:00037773       ___crtExitProcess          00438773 f   LIBCMT:crt0dat.obj
 0001:00037788       __lockexit                 00438788 f   LIBCMT:crt0dat.obj
 0001:00037791       __unlockexit               00438791 f   LIBCMT:crt0dat.obj
 0001:000377b2       __initterm_e               004387b2 f   LIBCMT:crt0dat.obj
 0001:000377d2       __get_osplatform           004387d2 f   LIBCMT:crt0dat.obj
 0001:00037809       __get_winmajor             00438809 f   LIBCMT:crt0dat.obj
 0001:00037845       __cinit                    00438845 f   LIBCMT:crt0dat.obj
 0001:000379b9       _exit                      004389b9 f   LIBCMT:crt0dat.obj
 0001:000379ca       __exit                     004389ca f   LIBCMT:crt0dat.obj
 0001:000379db       __cexit                    004389db f   LIBCMT:crt0dat.obj
 0001:000379ea       __c_exit                   004389ea f   LIBCMT:crt0dat.obj
 0001:000379f9       __init_pointers            004389f9 f   LIBCMT:crt0dat.obj
 0001:00037a45       _printf                    00438a45 f   LIBCMT:printf.obj
 0001:00037af4       __get_printf_count_output  00438af4 f   LIBCMT:printf.obj
 0001:00037b0a       __fclose_nolock            00438b0a f   LIBCMT:fclose.obj
 0001:00037b7c       _fclose                    00438b7c f   LIBCMT:fclose.obj
 0001:00037bf8       _sprintf                   00438bf8 f   LIBCMT:sprintf.obj
 0001:00037c73       __fsopen                   00438c73 f   LIBCMT:fopen.obj
 0001:00037d37       _fopen                     00438d37 f   LIBCMT:fopen.obj
 0001:00037d4a       __strdup                   00438d4a f   LIBCMT:strdup.obj
 0001:00037db0       _strchr                    00438db0 f   LIBCMT:strchr.obj
 0001:00037db6       ___from_strstr_to_strchr   00438db6     LIBCMT:strchr.obj
 0001:00037e6e       _V6_HeapAlloc              00438e6e f   LIBCMT:malloc.obj
 0001:00037ebd       _malloc                    00438ebd f   LIBCMT:malloc.obj
 0001:00037f80       ___ascii_stricmp           00438f80 f   LIBCMT:stricmp.obj
 0001:00037fb5       __stricmp_l                00438fb5 f   LIBCMT:stricmp.obj
 0001:00038088       __stricmp                  00439088 f   LIBCMT:stricmp.obj
 0001:00038088       _stricmp                   00439088 f   LIBCMT:stricmp.obj
 0001:00038140       _sscanf                    00439140 f   LIBCMT:sscanf.obj
 0001:0003815f       _atol                      0043915f f   LIBCMT:atox.obj
 0001:00038170       _atoi                      00439170 f   LIBCMT:atox.obj
 0001:00038175       __atof_l                   00439175 f   LIBCMT:atof.obj
 0001:0003821e       _atof                      0043921e f   LIBCMT:atof.obj
 0001:0003822c       __fseek_nolock             0043922c f   LIBCMT:fseek.obj
 0001:000382b3       _fseek                     004392b3 f   LIBCMT:fseek.obj
 0001:00038338       __ftell_nolock             00439338 f   LIBCMT:ftell.obj
 0001:000384d0       _ftell                     004394d0 f   LIBCMT:ftell.obj
 0001:0003853e       __get_errno_from_oserr     0043953e f   LIBCMT:dosmap.obj
 0001:00038579       __errno                    00439579 f   LIBCMT:dosmap.obj
 0001:0003858c       ___doserrno                0043958c f   LIBCMT:dosmap.obj
 0001:0003859f       __dosmaperr                0043959f f   LIBCMT:dosmap.obj
 0001:000385bd       __fread_nolock_s           004395bd f   LIBCMT:fread.obj
 0001:000387c3       _fread_s                   004397c3 f   LIBCMT:fread.obj
 0001:00038859       _fread                     00439859 f   LIBCMT:fread.obj
 0001:00038874       __fwrite_nolock            00439874 f   LIBCMT:fwrite.obj
 0001:000389d3       _fwrite                    004399d3 f   LIBCMT:fwrite.obj
 0001:00038a55       _vprintf_helper            00439a55 f   LIBCMT:vprintf.obj
 0001:00038ae5       _vprintf                   00439ae5 f   LIBCMT:vprintf.obj
 0001:00038afd       __flush                    00439afd f   LIBCMT:fflush.obj
 0001:00038b5f       __fflush_nolock            00439b5f f   LIBCMT:fflush.obj
 0001:00038c7b       _fflush                    00439c7b f   LIBCMT:fflush.obj
 0001:00038cce       __flushall                 00439cce f   LIBCMT:fflush.obj
 0001:00038cd7       ___iob_func                00439cd7 f   LIBCMT:_file.obj
 0001:00038cdd       ___initstdio               00439cdd f   LIBCMT:_file.obj
 0001:00038d8e       ___endstdio                00439d8e f   LIBCMT:_file.obj
 0001:00038dae       __lock_file                00439dae f   LIBCMT:_file.obj
 0001:00038dea       __lock_file2               00439dea f   LIBCMT:_file.obj
 0001:00038e18       __unlock_file              00439e18 f   LIBCMT:_file.obj
 0001:00038e4e       __unlock_file2             00439e4e f   LIBCMT:_file.obj
 0001:00038e80       _strncpy                   00439e80 f   LIBCMT:strncpy.obj
 0001:00038fa4       __validdrive               00439fa4 f   LIBCMT:getcwd.obj
 0001:00038fdb       __getdcwd_nolock           00439fdb f   LIBCMT:getcwd.obj
 0001:00039110       __getcwd                   0043a110 f   LIBCMT:getcwd.obj
 0001:00039160       _strrchr                   0043a160 f   LIBCMT:strrchr.obj
 0001:0003918d       __vsnprintf_l              0043a18d f   LIBCMT:vsnprint.obj
 0001:0003923e       __vsnprintf                0043a23e f   LIBCMT:vsnprint.obj
 0001:00039259       ?_JumpToContinuation@@YGXPAXPAUEHRegistrationNode@@@Z 0043a259 f   LIBCMT:trnsctrl.obj
 0001:00039289       ?_CallMemberFunction1@@YGXPAX00@Z 0043a289 f   LIBCMT:trnsctrl.obj
 0001:00039289       ?_CallMemberFunction0@@YGXPAX0@Z 0043a289 f   LIBCMT:trnsctrl.obj
 0001:00039289       ?_CallMemberFunction2@@YGXPAX00H@Z 0043a289 f   LIBCMT:trnsctrl.obj
 0001:00039290       ?_UnwindNestedFrames@@YGXPAUEHRegistrationNode@@PAUEHExceptionRecord@@@Z 0043a290 f   LIBCMT:trnsctrl.obj
 0001:000392e2       ___CxxFrameHandler3        0043a2e2 f   LIBCMT:trnsctrl.obj
 0001:00039348       ?_CallSETranslator@@YAHPAUEHExceptionRecord@@PAUEHRegistrationNode@@PAX2PBU_s_FuncInfo@@H1@Z 0043a348 f   LIBCMT:trnsctrl.obj
 0001:000394ba       ?_GetRangeOfTrysToCheck@@YAPBU_s_TryBlockMapEntry@@PBU_s_FuncInfo@@HHPAI1@Z 0043a4ba f   LIBCMT:trnsctrl.obj
 0001:0003952d       __CreateFrameInfo          0043a52d f   LIBCMT:trnsctrl.obj
 0001:00039555       __IsExceptionObjectToBeDestroyed 0043a555 f   LIBCMT:trnsctrl.obj
 0001:00039576       __FindAndUnlinkFrame       0043a576 f   LIBCMT:trnsctrl.obj
 0001:000395c2       ?_CallCatchBlock2@@YAPAXPAUEHRegistrationNode@@PBU_s_FuncInfo@@PAXHK@Z 0043a5c2 f   LIBCMT:trnsctrl.obj
 0001:00039620       ??1type_info@@UAE@XZ       0043a620 f   LIBCMT:typinfo.obj
 0001:0003962e       ??_Gtype_info@@UAEPAXI@Z   0043a62e f i LIBCMT:typinfo.obj
 0001:0003962e       ??_Etype_info@@UAEPAXI@Z   0043a62e f i LIBCMT:typinfo.obj
 0001:0003964a       ??8type_info@@QBE_NABV0@@Z 0043a64a f   LIBCMT:typinfo.obj
 0001:00039670       _acos                      0043a670 f   LIBCMT:acos.obj
 0001:000396b0       __CIacos                   0043a6b0 f   LIBCMT:acos.obj
 0001:000396eb       __CIacos_default           0043a6eb f   LIBCMT:acos.obj
 0001:000396ff       __acos_default             0043a6ff     LIBCMT:acos.obj
 0001:000397c0       _atan2                     0043a7c0 f   LIBCMT:87ctriga.obj
 0001:000397ca       __CIatan2                  0043a7ca f   LIBCMT:87ctriga.obj
 0001:000397e0       _floor                     0043a7e0 f   LIBCMT:floor_pentium4.obj
 0001:00039820       __floor_pentium4           0043a820 f   LIBCMT:floor_pentium4.obj
 0001:00039910       __CIsqrt                   0043a910 f   LIBCMT:sqrt.obj
 0001:00039924       _sqrt                      0043a924     LIBCMT:sqrt.obj
 0001:000399ca       ??_U@YAPAXIABUnothrow_t@std@@@Z 0043a9ca f   LIBCMT:newaopnt.obj
 0001:000399d0       __ftol2_sse                0043a9d0 f   LIBCMT:ftol2.obj
 0001:000399d9       __ftol2_pentium4           0043a9d9 f   LIBCMT:ftol2.obj
 0001:000399ec       __ftol2_sse_excpt          0043a9ec f   LIBCMT:ftol2.obj
 0001:00039a06       __ftol2                    0043aa06 f   LIBCMT:ftol2.obj
 0001:00039a7b       _rand                      0043aa7b f   LIBCMT:rand.obj
 0001:00039aa0       _ceil                      0043aaa0 f   LIBCMT:ceil_pentium4.obj
 0001:00039ae0       __ceil_pentium4            0043aae0 f   LIBCMT:ceil_pentium4.obj
 0001:00039bbd       ??_V@YAXPAX@Z              0043abbd f   LIBCMT:delete2.obj
 0001:00039bc2       ??2@YAPAXIABUnothrow_t@std@@@Z 0043abc2 f   LIBCMT:newopnt.obj
 0001:00039c00       _sin                       0043ac00 f   LIBCMT:sin.obj
 0001:00039c40       __CIsin                    0043ac40 f   LIBCMT:sin.obj
 0001:00039c7b       __CIsin_default            0043ac7b f   LIBCMT:sin.obj
 0001:00039c8f       __sin_default              0043ac8f     LIBCMT:sin.obj
 0001:00039d30       _cos                       0043ad30 f   LIBCMT:cos.obj
 0001:00039d70       __CIcos                    0043ad70 f   LIBCMT:cos.obj
 0001:00039dab       __CIcos_default            0043adab f   LIBCMT:cos.obj
 0001:00039dbf       __cos_default              0043adbf     LIBCMT:cos.obj
 0001:00039e60       _pow                       0043ae60 f   LIBCMT:pow.obj
 0001:00039ea0       __CIpow                    0043aea0 f   LIBCMT:pow.obj
 0001:00039edb       __CIpow_default            0043aedb f   LIBCMT:pow.obj
 0001:00039ef4       __pow_default              0043aef4     LIBCMT:pow.obj
 0001:0003a0ea       ??0exception@std@@QAE@ABQBD@Z 0043b0ea f   LIBCMT:stdexcpt.obj
 0001:0003a138       ??0exception@std@@QAE@ABQBDH@Z 0043b138 f   LIBCMT:stdexcpt.obj
 0001:0003a150       ??0exception@std@@QAE@ABV01@@Z 0043b150 f   LIBCMT:stdexcpt.obj
 0001:0003a1a8       ??1exception@std@@UAE@XZ   0043b1a8 f   LIBCMT:stdexcpt.obj
 0001:0003a1be       ?what@exception@std@@UBEPBDXZ 0043b1be f   LIBCMT:stdexcpt.obj
 0001:0003a1cb       ??_Eexception@std@@UAEPAXI@Z 0043b1cb f i LIBCMT:stdexcpt.obj
 0001:0003a1cb       ??_Gexception@std@@UAEPAXI@Z 0043b1cb f i LIBCMT:stdexcpt.obj
 0001:0003a1e7       _memcpy_s                  0043b1e7 f   LIBCMT:memcpy_s.obj
 0001:0003a262       __CxxThrowException@8      0043b262 f   LIBCMT:throw.obj
 0001:0003a2ac       __initp_misc_invarg        0043b2ac f   LIBCMT:invarg.obj
 0001:0003a2b6       __invoke_watson            0043b2b6 f   LIBCMT:invarg.obj
 0001:0003a3b2       __invalid_parameter        0043b3b2 f   LIBCMT:invarg.obj
 0001:0003a3e0       _strstr                    0043b3e0 f   LIBCMT:strstr.obj
 0001:0003a51f       ___onexitinit              0043b51f f   LIBCMT:onexit.obj
 0001:0003a54e       __onexit                   0043b54e f   LIBCMT:onexit.obj
 0001:0003a58a       _atexit                    0043b58a f   LIBCMT:onexit.obj
 0001:0003a59c       _fgets                     0043b59c f   LIBCMT:fgets.obj
 0001:0003a723       __tolower_l                0043b723 f   LIBCMT:tolower.obj
 0001:0003a83a       _tolower                   0043b83a f   LIBCMT:tolower.obj
 0001:0003a870       _memmove                   0043b870 f   LIBCMT:memmove.obj
 0001:0003abd5       _strncmp                   0043bbd5 f   LIBCMT:strncmp.obj
 0001:0003aca0       _atan                      0043bca0 f   LIBCMT:atan.obj
 0001:0003ace0       __CIatan                   0043bce0 f   LIBCMT:atan.obj
 0001:0003ad1b       __CIatan_default           0043bd1b f   LIBCMT:atan.obj
 0001:0003ad2f       __atan_default             0043bd2f     LIBCMT:atan.obj
 0001:0003adc0       _log                       0043bdc0 f   LIBCMT:log.obj
 0001:0003ae00       __CIlog                    0043be00 f   LIBCMT:log.obj
 0001:0003ae3b       __CIlog_default            0043be3b f   LIBCMT:log.obj
 0001:0003ae4f       __log_default              0043be4f     LIBCMT:log.obj
 0001:0003af10       __allshr                   0043bf10 f   LIBCMT:llshr.obj
 0001:0003af40       __allmul                   0043bf40 f   LIBCMT:llmul.obj
 0001:0003af74       __toupper_l                0043bf74 f   LIBCMT:toupper.obj
 0001:0003b08c       _toupper                   0043c08c f   LIBCMT:toupper.obj
 0001:0003b0b3       __snprintf                 0043c0b3 f   LIBCMT:snprintf.obj
 0001:0003b160       __mkdir                    0043c160 f   LIBCMT:mkdir.obj
 0001:0003b18c       __findclose                0043c18c f   LIBCMT:findfile.obj
 0001:0003b1ac       ___time64_t_from_ft        0043c1ac f   LIBCMT:findfi32.obj
 0001:0003b212       __findfirst64i32           0043c212 f   LIBCMT:findfi32.obj
 0001:0003b342       __findnext64i32            0043c342 f   LIBCMT:findfi32.obj
 0001:0003b68c       _mainCRTStartup            0043c68c f   LIBCMT:crt0.obj
 0001:0003b696       __forcdecpt_l              0043c696 f   LIBCMT:cvt.obj
 0001:0003b707       __cropzeros_l              0043c707 f   LIBCMT:cvt.obj
 0001:0003b787       __positive                 0043c787 f   LIBCMT:cvt.obj
 0001:0003b79d       __fassign_l                0043c79d f   LIBCMT:cvt.obj
 0001:0003b7dd       __fassign                  0043c7dd f   LIBCMT:cvt.obj
 0001:0003b811       __forcdecpt                0043c811 f   LIBCMT:cvt.obj
 0001:0003b81f       __cropzeros                0043c81f f   LIBCMT:cvt.obj
 0001:0003b99a       __cftoe_l                  0043c99a f   LIBCMT:cvt.obj
 0001:0003ba68       __cftoe                    0043ca68 f   LIBCMT:cvt.obj
 0001:0003ba86       __cftoa_l                  0043ca86 f   LIBCMT:cvt.obj
 0001:0003beec       __cftof_l                  0043ceec f   LIBCMT:cvt.obj
 0001:0003bfa5       __cftog_l                  0043cfa5 f   LIBCMT:cvt.obj
 0001:0003c09d       __cfltcvt_l                0043d09d f   LIBCMT:cvt.obj
 0001:0003c123       __cfltcvt                  0043d123 f   LIBCMT:cvt.obj
 0001:0003c144       __initp_misc_cfltcvt_tab   0043d144 f   LIBCMT:cmiscdat.obj
 0001:0003c163       __setdefaultprecision      0043d163 f   LIBCMT:fp8.obj
 0001:0003c18c       __ms_p5_test_fdiv          0043d18c f   LIBCMT:testfdiv.obj
 0001:0003c1c8       __ms_p5_mp_test_fdiv       0043d1c8 f   LIBCMT:testfdiv.obj
 0001:0003c1f1       __initp_heap_handler       0043d1f1 f   LIBCMT:handler.obj
 0001:0003c1fb       __callnewh                 0043d1fb f   LIBCMT:handler.obj
 0001:0003c2a4       __VEC_memcpy               0043d2a4 f   LIBCMT:p4_memcpy.obj
 0001:0003c387       __sse2_mathfcns_init       0043d387 f   LIBCMT:mathfcns.obj
 0001:0003c39b       __mtinitlocks              0043d39b f   LIBCMT:mlock.obj
 0001:0003c3e4       __mtdeletelocks            0043d3e4 f   LIBCMT:mlock.obj
 0001:0003c439       __unlock                   0043d439 f   LIBCMT:mlock.obj
 0001:0003c44e       __mtinitlocknum            0043d44e f   LIBCMT:mlock.obj
 0001:0003c511       __lock                     0043d511 f   LIBCMT:mlock.obj
 0001:0003c542       ___heap_select             0043d542 f   LIBCMT:heapinit.obj
 0001:0003c59d       __heap_init                0043d59d f   LIBCMT:heapinit.obj
 0001:0003c5f7       ___sbh_heap_init           0043d5f7 f   LIBCMT:sbheap.obj
 0001:0003c63f       ___sbh_find_block          0043d63f f   LIBCMT:sbheap.obj
 0001:0003c66a       ___sbh_free_block          0043d66a f   LIBCMT:sbheap.obj
 0001:0003c97e       ___sbh_alloc_new_region    0043d97e f   LIBCMT:sbheap.obj
 0001:0003ca2e       ___sbh_alloc_new_group     0043da2e f   LIBCMT:sbheap.obj
 0001:0003cb34       ___sbh_resize_block        0043db34 f   LIBCMT:sbheap.obj
 0001:0003ce13       ___sbh_alloc_block         0043de13 f   LIBCMT:sbheap.obj
 0001:0003d0f8       __SEH_prolog4              0043e0f8 f   LIBCMT:sehprolg4.obj
 0001:0003d13d       __SEH_epilog4              0043e13d f   LIBCMT:sehprolg4.obj
 0001:0003d160       __except_handler4          0043e160 f   LIBCMT:chandler4.obj
 0001:0003d2f6       __msize                    0043e2f6 f   LIBCMT:msize.obj
 0001:0003d5a7       ___updatetmbcinfo          0043e5a7 f   LIBCMT:mbctype.obj
 0001:0003d6c5       __setmbcp_nolock           0043e6c5 f   LIBCMT:mbctype.obj
 0001:0003d89e       __setmbcp                  0043e89e f   LIBCMT:mbctype.obj
 0001:0003da38       ___initmbctable            0043ea38 f   LIBCMT:mbctype.obj
 0001:0003da56       ___freetlocinfo            0043ea56 f   LIBCMT:setlocal.obj
 0001:0003db96       ___addlocaleref            0043eb96 f   LIBCMT:setlocal.obj
 0001:0003dc1c       ___removelocaleref         0043ec1c f   LIBCMT:setlocal.obj
 0001:0003dce6       ___updatetlocinfo          0043ece6 f   LIBCMT:setlocal.obj
 0001:0003ddc8       __encode_pointer           0043edc8 f   LIBCMT:tidtable.obj
 0001:0003de36       __encoded_null             0043ee36 f   LIBCMT:tidtable.obj
 0001:0003de3f       __decode_pointer           0043ee3f f   LIBCMT:tidtable.obj
 0001:0003dead       ___crtTlsAlloc@4           0043eead f   LIBCMT:tidtable.obj
 0001:0003deb6       ___set_flsgetvalue         0043eeb6 f   LIBCMT:tidtable.obj
 0001:0003dee8       __mtterm                   0043eee8 f   LIBCMT:tidtable.obj
 0001:0003df25       __initptd                  0043ef25 f   LIBCMT:tidtable.obj
 0001:0003dfe4       __getptd_noexit            0043efe4 f   LIBCMT:tidtable.obj
 0001:0003e05b       __getptd                   0043f05b f   LIBCMT:tidtable.obj
 0001:0003e073       __freefls@4                0043f073 f   LIBCMT:tidtable.obj
 0001:0003e194       __mtinit                   0043f194 f   LIBCMT:tidtable.obj
 0001:0003e318       __isctype_l                0043f318 f   LIBCMT:isctype.obj
 0001:0003e425       __VEC_memzero              0043f425 f   LIBCMT:p4_memset.obj
 0001:0003e4b4       ___report_gsfailure        0043f4b4 f   LIBCMT:gs_report.obj
 0001:0003e5b8       __NMSG_WRITE               0043f5b8 f   LIBCMT:crt0msg.obj
 0001:0003e758       __FF_MSGBANNER             0043f758 f   LIBCMT:crt0msg.obj
 0001:0003e791       __RTC_Initialize           0043f791 f   LIBCMT:initsect.obj
 0001:0003e7b5       __RTC_Terminate            0043f7b5 f   LIBCMT:initsect.obj
 0001:0003e7e0       __ValidateImageBase        0043f7e0 f   LIBCMT:pesect.obj
 0001:0003e810       __FindPESection            0043f810 f   LIBCMT:pesect.obj
 0001:0003e860       __IsNonwritableInCurrentImage 0043f860 f   LIBCMT:pesect.obj
 0001:0003e91b       ?terminate@@YAXXZ          0043f91b f   LIBCMT:hooks.obj
 0001:0003e954       ?unexpected@@YAXXZ         0043f954 f   LIBCMT:hooks.obj
 0001:0003e967       ?_inconsistency@@YAXXZ     0043f967 f   LIBCMT:hooks.obj
 0001:0003e99e       __initp_eh_hooks           0043f99e f   LIBCMT:hooks.obj
 0001:0003e9af       __XcptFilter               0043f9af f   LIBCMT:winxfltr.obj
 0001:0003eb0d       __initp_misc_winsig        0043fb0d f   LIBCMT:winsig.obj
 0001:0003eb5a       ___get_sigabrt             0043fb5a f   LIBCMT:winsig.obj
 0001:0003eb67       _raise                     0043fb67 f   LIBCMT:winsig.obj
 0001:0003ed17       __initp_misc_rand_s        0043fd17 f   LIBCMT:rand_s.obj
 0001:0003ed21       __initp_misc_purevirt      0043fd21 f   LIBCMT:inithelp.obj
 0001:0003ed2b       __initp_misc_initcrit      0043fd2b f   LIBCMT:initcrit.obj
 0001:0003ed45       ___crtInitCritSecAndSpinCount 0043fd45 f   LIBCMT:initcrit.obj
 0001:0003ee0a       __stbuf                    0043fe0a f   LIBCMT:_sftbuf.obj
 0001:0003eea0       __ftbuf                    0043fea0 f   LIBCMT:_sftbuf.obj
 0001:0003ef70       __output_l                 0043ff70 f   LIBCMT:output.obj
 0001:0003f904       __close_nolock             00440904 f   LIBCMT:close.obj
 0001:0003f998       __close                    00440998 f   LIBCMT:close.obj
 0001:0003fa65       __fileno                   00440a65 f   LIBCMT:fileno.obj
 0001:0003fa92       __freebuf                  00440a92 f   LIBCMT:_freebuf.obj
 0001:0003fabe       __flsbuf                   00440abe f   LIBCMT:_flsbuf.obj
 0001:0003fc1e       __openfile                 00440c1e f   LIBCMT:_open.obj
 0001:0003febe       __getstream                00440ebe f   LIBCMT:stream.obj
 0001:0003fff0       __local_unwind4            00440ff0 f   LIBCMT:exsup4.obj
 0001:000400c6       __seh_longjmp_unwind4@4    004410c6 f   LIBCMT:exsup4.obj
 0001:000400e2       @_EH4_CallFilterFunc@8     004410e2 f   LIBCMT:exsup4.obj
 0001:000400f9       @_EH4_TransferToHandler@8  004410f9 f   LIBCMT:exsup4.obj
 0001:00040112       @_EH4_GlobalUnwind@4       00441112 f   LIBCMT:exsup4.obj
 0001:0004012c       @_EH4_LocalUnwind@16       0044112c f   LIBCMT:exsup4.obj
 0001:00040150       __aulldvrm                 00441150 f   LIBCMT:ulldvrm.obj
 0001:000401e5       _strcpy_s                  004411e5 f   LIBCMT:strcpy_s.obj
 0001:00040250       _strlen                    00441250 f   LIBCMT:strlen.obj
 0001:0004036a       __input_l                  0044136a f   LIBCMT:input.obj
 0001:000411e2       _strtol                    004421e2 f   LIBCMT:strtol.obj
 0001:0004120b       __fltin2                   0044220b f   LIBCMT:cfin.obj
 0001:000412b0       ___strgtold12_l            004422b0 f   LIBCMT:strgtold.obj
 0001:00041970       __lseek_nolock             00442970 f   LIBCMT:lseek.obj
 0001:000419e2       __lseek                    004429e2 f   LIBCMT:lseek.obj
 0001:00041abe       __ioinit                   00442abe f   LIBCMT:ioinit.obj
 0001:00041cfe       __malloc_crt               00442cfe f   LIBCMT:crtheap.obj
 0001:00041d3e       __calloc_crt               00442d3e f   LIBCMT:crtheap.obj
 0001:00041d86       __realloc_crt              00442d86 f   LIBCMT:crtheap.obj
 0001:00041dd1       __recalloc_crt             00442dd1 f   LIBCMT:crtheap.obj
 0001:00041e21       _strncpy_s                 00442e21 f   LIBCMT:strncpy_s.obj
 0001:00041ed4       __filbuf                   00442ed4 f   LIBCMT:_filbuf.obj
 0001:00041ff4       __read_nolock              00442ff4 f   LIBCMT:read.obj
 0001:000425b5       __read                     004435b5 f   LIBCMT:read.obj
 0001:000426b2       __write_nolock             004436b2 f   LIBCMT:write.obj
 0001:00042c78       __write                    00443c78 f   LIBCMT:write.obj
 0001:00042d54       __commit                   00443d54 f   LIBCMT:commit.obj
 0001:00042e35       __fcloseall                00443e35 f   LIBCMT:closeall.obj
 0001:00042ed4       __calloc_impl              00443ed4 f   LIBCMT:calloc.obj
 0001:00042ff2       _calloc                    00443ff2 f   LIBCMT:calloc.obj
 0001:00043031       __getdrive                 00444031 f   LIBCMT:drive.obj
 0001:000430f7       ??1bad_exception@std@@UAE@XZ 004440f7 f i LIBCMT:frame.obj
 0001:00043102       ??_Gbad_exception@std@@UAEPAXI@Z 00444102 f i LIBCMT:frame.obj
 0001:00043102       ??_Ebad_exception@std@@UAEPAXI@Z 00444102 f i LIBCMT:frame.obj
 0001:00043124       ___TypeMatch               00444124 f   LIBCMT:frame.obj
 0001:00043180       ___FrameUnwindFilter       00444180 f   LIBCMT:frame.obj
 0001:000431c4       ___FrameUnwindToState      004441c4 f   LIBCMT:frame.obj
 0001:000432ea       ___DestructExceptionObject 004442ea f   LIBCMT:frame.obj
 0001:0004333e       ___AdjustPointer           0044433e f   LIBCMT:frame.obj
 0001:000435c1       ___BuildCatchObjectHelper  004445c1 f   LIBCMT:frame.obj
 0001:00043740       ___BuildCatchObject        00444740 f   LIBCMT:frame.obj
 0001:00043c85       ??0bad_exception@std@@QAE@ABV01@@Z 00444c85 f i LIBCMT:frame.obj
 0001:00043c9d       ___InternalCxxFrameHandler 00444c9d f   LIBCMT:frame.obj
 0001:00043d90       __CallSettingFrame@12      00444d90 f   LIBCMT:lowhelpr.obj
 0001:00043db7       __NLG_Return               00444db7     LIBCMT:lowhelpr.obj
 0001:00043ddc       ?_Type_info_dtor@type_info@@CAXPAV1@@Z 00444ddc f   LIBCMT:typname.obj
 0001:00043e50       _strcmp                    00444e50 f   LIBCMT:strcmp.obj
 0001:00043ee0       __CIacos_pentium4          00444ee0 f   LIBCMT:acos_pentium4.obj
 0001:00043ef8       __acos_pentium4            00444ef8     LIBCMT:acos_pentium4.obj
 0001:00044440       __trandisp1                00445440 f   LIBCMT:87disp.obj
 0001:000444a7       __trandisp2                004454a7 f   LIBCMT:87disp.obj
 0001:00044533       __rttospopde               00445533     LIBCMT:87disp.obj
 0001:00044538       __rttospop                 00445538     LIBCMT:87disp.obj
 0001:0004453a       __rtnospop                 0044553a     LIBCMT:87disp.obj
 0001:0004453c       __rttosnpop                0044553c     LIBCMT:87disp.obj
 0001:0004453d       __rtnospopde               0044553d     LIBCMT:87disp.obj
 0001:00044544       __rtzeropop                00445544     LIBCMT:87disp.obj
 0001:00044546       __rtzeronpop               00445546     LIBCMT:87disp.obj
 0001:0004454b       __rtonepop                 0044554b     LIBCMT:87disp.obj
 0001:0004454d       __rtonenpop                0044554d     LIBCMT:87disp.obj
 0001:00044552       __tosnan1                  00445552     LIBCMT:87disp.obj
 0001:0004457d       __nosnan2                  0044557d     LIBCMT:87disp.obj
 0001:0004457f       __tosnan2                  0044557f     LIBCMT:87disp.obj
 0001:000445a7       __nan2                     004455a7     LIBCMT:87disp.obj
 0001:000445e6       __rtindfpop                004455e6     LIBCMT:87disp.obj
 0001:000445e8       __rtindfnpop               004455e8     LIBCMT:87disp.obj
 0001:000445f9       __rttosnpopde              004455f9     LIBCMT:87disp.obj
 0001:00044603       __rtchsifneg               00445603     LIBCMT:87disp.obj
 0001:00044610       __startTwoArgErrorHandling 00445610 f   LIBCMT:genexcep.obj
 0001:00044627       __startOneArgErrorHandling 00445627 f   LIBCMT:genexcep.obj
 0001:00044670       __twoToTOS                 00445670 f   LIBCMT:common.obj
 0001:00044685       __load_CW                  00445685 f   LIBCMT:common.obj
 0001:0004469c       __convertTOStoQNaN         0044569c f   LIBCMT:common.obj
 0001:000446b5       __fload_withFB             004456b5 f   LIBCMT:common.obj
 0001:000446f8       __checkTOS_withFB          004456f8 f   LIBCMT:common.obj
 0001:0004470e       __fast_exit                0044570e f   LIBCMT:common.obj
 0001:0004471b       __math_exit                0044571b f   LIBCMT:common.obj
 0001:00044745       __check_overflow_exit      00445745 f   LIBCMT:common.obj
 0001:00044759       __check_range_exit         00445759 f   LIBCMT:common.obj
 0001:0004481c       __fFATN2                   0044581c     LIBCMT:87triga.obj
 0001:0004486c       __rtpiby2                  0044586c     LIBCMT:87triga.obj
 0001:000448b0       __cintrindisp2             004458b0 f   LIBCMT:87cdisp.obj
 0001:000448ee       __cintrindisp1             004458ee f   LIBCMT:87cdisp.obj
 0001:0004492b       __ctrandisp2               0044592b f   LIBCMT:87cdisp.obj
 0001:00044ac1       __ctrandisp1               00445ac1 f   LIBCMT:87cdisp.obj
 0001:00044af4       __fload                    00445af4 f   LIBCMT:87cdisp.obj
 0001:00044b30       ___libm_error_support      00445b30 f   LIBCMT:libm_error.obj
 0001:00044de0       __floor_default            00445de0 f   LIBCMT:floor.obj
 0001:00044eb1       __ceil_default             00445eb1 f   LIBCMT:ceil.obj
 0001:00044f82       __EH_prolog3_catch         00445f82 f   LIBCMT:ehprolg3.obj
 0001:00044fb8       __EH_epilog3               00445fb8 f   LIBCMT:ehprolg3.obj
 0001:00044fd0       __CIsin_pentium4           00445fd0 f   LIBCMT:sin_pentium4.obj
 0001:00044fe8       __sin_pentium4             00445fe8     LIBCMT:sin_pentium4.obj
 0001:000451a0       __CIcos_pentium4           004461a0 f   LIBCMT:cos_pentium4.obj
 0001:000451b8       __cos_pentium4             004461b8     LIBCMT:cos_pentium4.obj
 0001:00045350       __CIpow_pentium4           00446350 f   LIBCMT:pow_pentium4.obj
 0001:00045369       __pow_pentium4             00446369     LIBCMT:pow_pentium4.obj
 0001:00045ec1       __fFEXP                    00446ec1     LIBCMT:87tran.obj
 0001:00045f28       __rtinfpopse               00446f28     LIBCMT:87tran.obj
 0001:00045f2a       __rtinfnpopse              00446f2a     LIBCMT:87tran.obj
 0001:00045f3a       __fFLN                     00446f3a     LIBCMT:87tran.obj
 0001:00045fef       __rtinfpop                 00446fef     LIBCMT:87tran.obj
 0001:00045ff1       __rtinfnpop                00446ff1     LIBCMT:87tran.obj
 0001:0004600e       __ffexpm1                  0044700e     LIBCMT:87tran.obj
 0001:000460b7       __d_inttype                004470b7 f   LIBCMT:powhlp.obj
 0001:0004611b       __powhlp                   0044711b f   LIBCMT:powhlp.obj
 0001:00046259       __crt_debugger_hook        00447259 f   LIBCMT:dbghook.obj
 0001:00046261       __freea                    00447261 f i LIBCMT:a_map.obj
 0001:0004661e       ___crtLCMapStringA         0044761e f   LIBCMT:a_map.obj
 0001:00046661       __isleadbyte_l             00447661 f i LIBCMT:_wctype.obj
 0001:00046697       _isleadbyte                00447697 f i LIBCMT:_wctype.obj
 0001:000466b0       __CIatan_pentium4          004476b0 f   LIBCMT:atan_pentium4.obj
 0001:000466c8       __atan_pentium4            004476c8     LIBCMT:atan_pentium4.obj
 0001:000469a0       __CIlog_pentium4           004479a0 f   LIBCMT:log_pentium4.obj
 0001:000469b8       __log_pentium4             004479b8     LIBCMT:log_pentium4.obj
 0001:000472fc       ___tzset                   004482fc f   LIBCMT:tzset.obj
 0001:0004734b       __isindst                  0044834b f   LIBCMT:tzset.obj
 0001:0004738c       __get_daylight             0044838c f   LIBCMT:timeset.obj
 0001:000473c0       __get_dstbias              004483c0 f   LIBCMT:timeset.obj
 0001:000473f4       __get_timezone             004483f4 f   LIBCMT:timeset.obj
 0001:00047428       ___daylight                00448428 f   LIBCMT:timeset.obj
 0001:0004742e       ___dstbias                 0044842e f   LIBCMT:timeset.obj
 0001:00047434       ___timezone                00448434 f   LIBCMT:timeset.obj
 0001:0004743a       ___tzname                  0044843a f   LIBCMT:timeset.obj
 0001:00047440       __alldiv                   00448440 f   LIBCMT:lldiv.obj
 0001:000474f0       __allrem                   004484f0 f   LIBCMT:llrem.obj
 0001:000475b0       __aulldiv                  004485b0 f   LIBCMT:ulldiv.obj
 0001:00047618       ___loctotime64_t           00448618 f   LIBCMT:dtoxtm64.obj
 0001:00047881       ?__CxxUnhandledExceptionFilter@@YGJPAU_EXCEPTION_POINTERS@@@Z 00448881 f   LIBCMT:unhandld.obj
 0001:000478be       ___CxxSetUnhandledExceptionFilter 004488be f   LIBCMT:unhandld.obj
 0001:000478cc       __setenvp                  004488cc f   LIBCMT:stdenvp.obj
 0001:00047b3f       __setargv                  00448b3f f   LIBCMT:stdargv.obj
 0001:00047bf8       ___crtGetEnvironmentStringsA 00448bf8 f   LIBCMT:a_env.obj
 0001:00047d2d       ___security_init_cookie    00448d2d f   LIBCMT:gs_support.obj
 0001:00047dc1       __atodbl_l                 00448dc1 f   LIBCMT:atodbl.obj
 0001:00047e67       __atoflt_l                 00448e67 f   LIBCMT:atodbl.obj
 0001:00047f0d       __fptostr                  00448f0d f   LIBCMT:_fptostr.obj
 0001:00047fca       ___dtold                   00448fca f   LIBCMT:cfout.obj
 0001:00048085       __fltout2                  00449085 f   LIBCMT:cfout.obj
 0001:00048120       __alldvrm                  00449120 f   LIBCMT:lldvrm.obj
 0001:00048200       __aullshr                  00449200 f   LIBCMT:ullshr.obj
 0001:0004821f       __fptrap                   0044921f f   LIBCMT:crt0fp.obj
 0001:00048228       __controlfp_s              00449228 f   LIBCMT:contrlfp.obj
 0001:000482e2       __get_sse2_info            004492e2 f   LIBCMT:cpu_disp.obj
 0001:00048342       ___sse2_available_init     00449342 f   LIBCMT:cpu_disp.obj
 0001:00048507       ___crtGetStringTypeA       00449507 f   LIBCMT:a_str.obj
 0001:00048547       ___free_lc_time            00449547 f   LIBCMT:inittime.obj
 0001:000486d7       ___free_lconv_num          004496d7 f   LIBCMT:initnum.obj
 0001:00048717       ___free_lconv_mon          00449717 f   LIBCMT:initmon.obj
 0001:000487a0       ____lc_codepage_func       004497a0 f   LIBCMT:initctyp.obj
 0001:000487c6       _strcat_s                  004497c6 f   LIBCMT:strcat_s.obj
 0001:00048840       _strcspn                   00449840 f   LIBCMT:strcspn.obj
 0001:00048890       _strpbrk                   00449890 f   LIBCMT:strpbrk.obj
 0001:000488d0       ___crtMessageBoxA          004498d0 f   LIBCMT:crtmbox.obj
 0001:00048a8d       __set_error_mode           00449a8d f   LIBCMT:errmode.obj
 0001:00048ad3       _abort                     00449ad3 f   LIBCMT:abort.obj
 0001:00048bc6       __isatty                   00449bc6 f   LIBCMT:isatty.obj
 0001:00048c24       __wctomb_s_l               00449c24 f   LIBCMT:wctomb.obj
 0001:00048d83       _wctomb_s                  00449d83 f   LIBCMT:wctomb.obj
 0001:00048d9e       __set_osfhnd               00449d9e f   LIBCMT:osfinfo.obj
 0001:00048e1b       __free_osfhnd              00449e1b f   LIBCMT:osfinfo.obj
 0001:00048e9c       __get_osfhandle            00449e9c f   LIBCMT:osfinfo.obj
 0001:00048f0d       ___lock_fhandle            00449f0d f   LIBCMT:osfinfo.obj
 0001:00048fad       __unlock_fhandle           00449fad f   LIBCMT:osfinfo.obj
 0001:00048fcf       __alloc_osfhnd             00449fcf f   LIBCMT:osfinfo.obj
 0001:0004916e       __lseeki64_nolock          0044a16e f   LIBCMT:lseeki64.obj
 0001:000491f1       __lseeki64                 0044a1f1 f   LIBCMT:lseeki64.obj
 0001:0004930a       __getbuf                   0044a30a f   LIBCMT:_getbuf.obj
 0001:00049aa7       __sopen_helper             0044aaa7 f   LIBCMT:open.obj
 0001:00049b73       __sopen_s                  0044ab73 f   LIBCMT:open.obj
 0001:00049b91       __mbsicmp_l                0044ab91 f   LIBCMT:mbsicmp.obj
 0001:00049dab       __mbsicmp                  0044adab f   LIBCMT:mbsicmp.obj
 0001:00049dbe       __mbsnbcmp_l               0044adbe f   LIBCMT:mbsnbcmp.obj
 0001:00049f27       __mbsnbcmp                 0044af27 f   LIBCMT:mbsnbcmp.obj
 0001:00049f40       __global_unwind2           0044af40 f   LIBCMT:exsup.obj
 0001:00049fa5       __local_unwind2            0044afa5 f   LIBCMT:exsup.obj
 0001:0004a029       __abnormal_termination     0044b029 f   LIBCMT:exsup.obj
 0001:0004a04c       __NLG_Notify1              0044b04c f   LIBCMT:exsup.obj
 0001:0004a055       __NLG_Notify               0044b055 f   LIBCMT:exsup.obj
 0001:0004a06c       __NLG_Dispatch2            0044b06c     LIBCMT:exsup.obj
 0001:0004a06c       __NLG_Dispatch             0044b06c     LIBCMT:exsup.obj
 0001:0004a074       __NLG_Call                 0044b074 f   LIBCMT:exsup.obj
 0001:0004a076       __NLG_Return2              0044b076     LIBCMT:exsup.obj
 0001:0004a077       __ungetc_nolock            0044b077 f   LIBCMT:ungetc.obj
 0001:0004a195       __mbtowc_l                 0044b195 f   LIBCMT:mbtowc.obj
 0001:0004a2a8       _mbtowc                    0044b2a8 f   LIBCMT:mbtowc.obj
 0001:0004a2bf       __ld12tod                  0044b2bf f   LIBCMT:intrncvt.obj
 0001:0004a801       __ld12tof                  0044b801 f   LIBCMT:intrncvt.obj
 0001:0004ad43       ___mtold12                 0044bd43 f   LIBCMT:mantold.obj
 0001:0004af0f       __putwch_nolock            0044bf0f f   LIBCMT:putwch.obj
 0001:0004afd1       ?_ValidateExecute@@YAHP6GHXZ@Z 0044bfd1 f   LIBCMT:validate.obj
 0001:0004afd1       ?_ValidateRead@@YAHPBXI@Z  0044bfd1 f   LIBCMT:validate.obj
 0001:0004afd1       ?_ValidateWrite@@YAHPAXI@Z 0044bfd1 f   LIBCMT:validate.obj
 0001:0004afde       __87except                 0044bfde f   LIBCMT:87except.obj
 0001:0004b0da       __matherr                  0044c0da f   LIBCMT:matherr.obj
 0001:0004b0dd       __raise_exc_ex             0044c0dd f   LIBCMT:fpexcept.obj
 0001:0004b3b7       __raise_exc                0044c3b7 f   LIBCMT:fpexcept.obj
 0001:0004b3d8       __handle_exc               0044c3d8 f   LIBCMT:fpexcept.obj
 0001:0004b5b9       __set_errno_from_matherr   0044c5b9 f   LIBCMT:fpexcept.obj
 0001:0004b5e1       __errcode                  0044c5e1 f   LIBCMT:fpexcept.obj
 0001:0004b60e       __umatherr                 0044c60e f   LIBCMT:fpexcept.obj
 0001:0004b6ac       __handle_qnan1             0044c6ac f   LIBCMT:fpexcept.obj
 0001:0004b6ff       __except1                  0044c6ff f   LIBCMT:fpexcept.obj
 0001:0004b7b9       __frnd                     0044c7b9 f   LIBCMT:frnd.obj
 0001:0004b7ca       __set_exp                  0044c7ca f   LIBCMT:util.obj
 0001:0004b7f4       __sptype                   0044c7f4 f   LIBCMT:util.obj
 0001:0004b84f       __decomp                   0044c84f f   LIBCMT:util.obj
 0001:0004b8fe       __statfp                   0044c8fe f   LIBCMT:fpctrl.obj
 0001:0004b909       __clrfp                    0044c909 f   LIBCMT:fpctrl.obj
 0001:0004b915       __ctrlfp                   0044c915 f   LIBCMT:fpctrl.obj
 0001:0004b93c       __set_statfp               0044c93c f   LIBCMT:fpctrl.obj
 0001:0004b992       ___set_fpsr_sse2           0044c992 f   LIBCMT:fpctrl.obj
 0001:0004ba10       _fdiv_main_routine         0044ca10 f   LIBCMT:adj_fdiv.obj
 0001:0004bb27       __adj_fdiv_r               0044cb27 f   LIBCMT:adj_fdiv.obj
 0001:0004bfc6       __fdivp_sti_st             0044cfc6 f   LIBCMT:adj_fdiv.obj
 0001:0004bfd9       __fdivrp_sti_st            0044cfd9 f   LIBCMT:adj_fdiv.obj
 0001:0004bfec       __adj_fdiv_m32             0044cfec f   LIBCMT:adj_fdiv.obj
 0001:0004c038       __adj_fdiv_m64             0044d038 f   LIBCMT:adj_fdiv.obj
 0001:0004c084       __adj_fdiv_m16i            0044d084 f   LIBCMT:adj_fdiv.obj
 0001:0004c0b8       __adj_fdiv_m32i            0044d0b8 f   LIBCMT:adj_fdiv.obj
 0001:0004c0ec       __adj_fdivr_m32            0044d0ec f   LIBCMT:adj_fdiv.obj
 0001:0004c138       __adj_fdivr_m64            0044d138 f   LIBCMT:adj_fdiv.obj
 0001:0004c184       __adj_fdivr_m16i           0044d184 f   LIBCMT:adj_fdiv.obj
 0001:0004c1b8       __adj_fdivr_m32i           0044d1b8 f   LIBCMT:adj_fdiv.obj
 0001:0004c1ec       __safe_fdiv                0044d1ec f   LIBCMT:adj_fdiv.obj
 0001:0004c201       __safe_fdivr               0044d201 f   LIBCMT:adj_fdiv.obj
 0001:0004c216       __fprem_common             0044d216 f   LIBCMT:adj_fdiv.obj
 0001:0004c41c       __adj_fprem                0044d41c f   LIBCMT:adj_fdiv.obj
 0001:0004c4ce       __fprem1_common            0044d4ce f   LIBCMT:adj_fdiv.obj
 0001:0004c6d4       __adj_fprem1               0044d6d4 f   LIBCMT:adj_fdiv.obj
 0001:0004c789       __safe_fprem               0044d789 f   LIBCMT:adj_fdiv.obj
 0001:0004c78f       __safe_fprem1              0044d78f f   LIBCMT:adj_fdiv.obj
 0001:0004c795       __adj_fpatan               0044d795 f   LIBCMT:adj_fdiv.obj
 0001:0004c798       __adj_fptan                0044d798 f   LIBCMT:adj_fdiv.obj
 0001:0004c79b       __fpclass                  0044d79b f   LIBCMT:ieeemisc.obj
 0001:0004c82f       ___ansicp                  0044d82f f   LIBCMT:convrtcp.obj
 0001:0004c876       ___convertcp               0044d876 f   LIBCMT:convrtcp.obj
 0001:0004ca30       __alloca_probe_16          0044da30 f   LIBCMT:alloca16.obj
 0001:0004ca46       __alloca_probe_8           0044da46     LIBCMT:alloca16.obj
 0001:0004ca5c       __getenv_helper_nolock     0044da5c f   LIBCMT:getenv.obj
 0001:0004cb2e       __ismbblead                0044db2e f   LIBCMT:ismbbyte.obj
 0001:0004cb41       _$I10_OUTPUT               0044db41 f   LIBCMT:x10fout.obj
 0001:0004d535       __control87                0044e535 f i LIBCMT:ieee87.obj
 0001:0004d838       __strnicmp_l               0044e838 f   LIBCMT:strnicmp.obj
 0001:0004d928       __strnicmp                 0044e928 f   LIBCMT:strnicmp.obj
 0001:0004d928       _strnicmp                  0044e928 f   LIBCMT:strnicmp.obj
 0001:0004d984       __chsize_nolock            0044e984 f   LIBCMT:chsize.obj
 0001:0004db38       __setmode_nolock           0044eb38 f   LIBCMT:setmode.obj
 0001:0004dbf4       __get_fmode                0044ebf4 f   LIBCMT:setmode.obj
 0001:0004dc28       ___initconout              0044ec28 f   LIBCMT:initcon.obj
 0001:0004dc47       ___termcon                 0044ec47 f   LIBCMT:initcon.obj
 0001:0004dc74       __mbsnbicoll_l             0044ec74 f   LIBCMT:mbsnbico.obj
 0001:0004dd60       __mbsnbicoll               0044ed60 f   LIBCMT:mbsnbico.obj
 0001:0004dd77       ___wtomb_environ           0044ed77 f   LIBCMT:wtombenv.obj
 0001:0004de10       ___ascii_strnicmp          0044ee10 f   LIBCMT:_strnicm.obj
 0001:0004e1fa       ___crtCompareStringA       0044f1fa f   LIBCMT:a_cmp.obj
 0001:0004e23a       __strnicoll_l              0044f23a f   LIBCMT:strnicol.obj
 0001:0004e3dc       ___crtsetenv               0044f3dc f   LIBCMT:setenv.obj
 0001:0004e628       __mbschr_l                 0044f628 f   LIBCMT:mbschr.obj
 0001:0004e6e2       __mbschr                   0044f6e2 f   LIBCMT:mbschr.obj
 0001:0004e6f6       _RtlUnwind@16              0044f6f6 f   kernel32:KERNEL32.dll
 0002:00000000       __imp__DeleteFileA@4       00450000     kernel32:KERNEL32.dll
 0002:00000004       __imp__CopyFileA@12        00450004     kernel32:KERNEL32.dll
 0002:00000008       __imp__GetFileAttributesA@4 00450008     kernel32:KERNEL32.dll
 0002:0000000c       __imp__SetFileAttributesA@8 0045000c     kernel32:KERNEL32.dll
 0002:00000010       __imp__GetFullPathNameA@16 00450010     kernel32:KERNEL32.dll
 0002:00000014       __imp__GetSystemInfo@4     00450014     kernel32:KERNEL32.dll
 0002:00000018       __imp__InterlockedExchangeAdd@8 00450018     kernel32:KERNEL32.dll
 0002:0000001c       __imp__WaitForMultipleObjects@16 0045001c     kernel32:KERNEL32.dll
 0002:00000020       __imp__CreateThread@24     00450020     kernel32:KERNEL32.dll
 0002:00000024       __imp__Sleep@4             00450024     kernel32:KERNEL32.dll
 0002:00000028       __imp__InterlockedCompareExchange@12 00450028     kernel32:KERNEL32.dll
 0002:0000002c       __imp__GetModuleHandleA@4  0045002c     kernel32:KERNEL32.dll
 0002:00000030       __imp__FindClose@4         00450030     kernel32:KERNEL32.dll
 0002:00000034       __imp__FindNextFileA@8     00450034     kernel32:KERNEL32.dll
 0002:00000038       __imp__FindFirstFileA@8    00450038     kernel32:KERNEL32.dll
 0002:0000003c       __imp__GlobalUnlock@4      0045003c     kernel32:KERNEL32.dll
 0002:00000040       __imp__GlobalLock@4        00450040     kernel32:KERNEL32.dll
 0002:00000044       __imp__GlobalAlloc@8       00450044     kernel32:KERNEL32.dll
 0002:00000048       __imp__CompareStringW@24   00450048     kernel32:KERNEL32.dll
 0002:0000004c       __imp__GetModuleFileNameA@12 0045004c     kernel32:KERNEL32.dll
 0002:00000050       __imp__DebugBreak@0        00450050     kernel32:KERNEL32.dll
 0002:00000054       __imp__OutputDebugStringA@4 00450054     kernel32:KERNEL32.dll
 0002:00000058       __imp__VirtualAlloc@16     00450058     kernel32:KERNEL32.dll
 0002:0000005c       __imp__VirtualFree@12      0045005c     kernel32:KERNEL32.dll
 0002:00000060       __imp__IsDebuggerPresent@0 00450060     kernel32:KERNEL32.dll
 0002:00000064       __imp__CompareStringA@24   00450064     kernel32:KERNEL32.dll
 0002:00000068       __imp__SetEndOfFile@4      00450068     kernel32:KERNEL32.dll
 0002:0000006c       __imp__WriteConsoleW@20    0045006c     kernel32:KERNEL32.dll
 0002:00000070       __imp__GetConsoleOutputCP@0 00450070     kernel32:KERNEL32.dll
 0002:00000074       __imp__WriteConsoleA@20    00450074     kernel32:KERNEL32.dll
 0002:00000078       __imp__CreateFileA@28      00450078     kernel32:KERNEL32.dll
 0002:0000007c       __imp__SetStdHandle@8      0045007c     kernel32:KERNEL32.dll
 0002:00000080       __imp__GetLocaleInfoA@16   00450080     kernel32:KERNEL32.dll
 0002:00000084       __imp__ExitProcess@4       00450084     kernel32:KERNEL32.dll
 0002:00000088       __imp__GetLastError@0      00450088     kernel32:KERNEL32.dll
 0002:0000008c       __imp__HeapReAlloc@16      0045008c     kernel32:KERNEL32.dll
 0002:00000090       __imp__HeapAlloc@12        00450090     kernel32:KERNEL32.dll
 0002:00000094       __imp__HeapFree@12         00450094     kernel32:KERNEL32.dll
 0002:00000098       __imp__GetProcAddress@8    00450098     kernel32:KERNEL32.dll
 0002:0000009c       __imp__EnterCriticalSection@4 0045009c     kernel32:KERNEL32.dll
 0002:000000a0       __imp__LeaveCriticalSection@4 004500a0     kernel32:KERNEL32.dll
 0002:000000a4       __imp__GetDriveTypeA@4     004500a4     kernel32:KERNEL32.dll
 0002:000000a8       __imp__RtlUnwind@16        004500a8     kernel32:KERNEL32.dll
 0002:000000ac       __imp__RaiseException@16   004500ac     kernel32:KERNEL32.dll
 0002:000000b0       __imp__TerminateProcess@8  004500b0     kernel32:KERNEL32.dll
 0002:000000b4       __imp__GetCurrentProcess@0 004500b4     kernel32:KERNEL32.dll
 0002:000000b8       __imp__UnhandledExceptionFilter@4 004500b8     kernel32:KERNEL32.dll
 0002:000000bc       __imp__SetUnhandledExceptionFilter@4 004500bc     kernel32:KERNEL32.dll
 0002:000000c0       __imp__GetSystemTimeAsFileTime@4 004500c0     kernel32:KERNEL32.dll
 0002:000000c4       __imp__CreateDirectoryA@8  004500c4     kernel32:KERNEL32.dll
 0002:000000c8       __imp__FileTimeToSystemTime@8 004500c8     kernel32:KERNEL32.dll
 0002:000000cc       __imp__FileTimeToLocalFileTime@8 004500cc     kernel32:KERNEL32.dll
 0002:000000d0       __imp__GetCommandLineA@0   004500d0     kernel32:KERNEL32.dll
 0002:000000d4       __imp__GetVersionExA@4     004500d4     kernel32:KERNEL32.dll
 0002:000000d8       __imp__GetProcessHeap@0    004500d8     kernel32:KERNEL32.dll
 0002:000000dc       __imp__DeleteCriticalSection@4 004500dc     kernel32:KERNEL32.dll
 0002:000000e0       __imp__SetEnvironmentVariableA@8 004500e0     kernel32:KERNEL32.dll
 0002:000000e4       __imp__HeapDestroy@4       004500e4     kernel32:KERNEL32.dll
 0002:000000e8       __imp__HeapCreate@12       004500e8     kernel32:KERNEL32.dll
 0002:000000ec       __imp__HeapSize@12         004500ec     kernel32:KERNEL32.dll
 0002:000000f0       __imp__GetCPInfo@8         004500f0     kernel32:KERNEL32.dll
 0002:000000f4       __imp__InterlockedIncrement@4 004500f4     kernel32:KERNEL32.dll
 0002:000000f8       __imp__InterlockedDecrement@4 004500f8     kernel32:KERNEL32.dll
 0002:000000fc       __imp__GetACP@0            004500fc     kernel32:KERNEL32.dll
 0002:00000100       __imp__GetOEMCP@0          00450100     kernel32:KERNEL32.dll
 0002:00000104       __imp__IsValidCodePage@4   00450104     kernel32:KERNEL32.dll
 0002:00000108       __imp__TlsGetValue@4       00450108     kernel32:KERNEL32.dll
 0002:0000010c       __imp__TlsAlloc@0          0045010c     kernel32:KERNEL32.dll
 0002:00000110       __imp__TlsSetValue@8       00450110     kernel32:KERNEL32.dll
 0002:00000114       __imp__TlsFree@4           00450114     kernel32:KERNEL32.dll
 0002:00000118       __imp__SetLastError@4      00450118     kernel32:KERNEL32.dll
 0002:0000011c       __imp__GetCurrentThreadId@0 0045011c     kernel32:KERNEL32.dll
 0002:00000120       __imp__WriteFile@20        00450120     kernel32:KERNEL32.dll
 0002:00000124       __imp__GetStdHandle@4      00450124     kernel32:KERNEL32.dll
 0002:00000128       __imp__LoadLibraryA@4      00450128     kernel32:KERNEL32.dll
 0002:0000012c       __imp__InitializeCriticalSection@4 0045012c     kernel32:KERNEL32.dll
 0002:00000130       __imp__CloseHandle@4       00450130     kernel32:KERNEL32.dll
 0002:00000134       __imp__SetFilePointer@16   00450134     kernel32:KERNEL32.dll
 0002:00000138       __imp__SetHandleCount@4    00450138     kernel32:KERNEL32.dll
 0002:0000013c       __imp__GetFileType@4       0045013c     kernel32:KERNEL32.dll
 0002:00000140       __imp__GetStartupInfoA@4   00450140     kernel32:KERNEL32.dll
 0002:00000144       __imp__MultiByteToWideChar@24 00450144     kernel32:KERNEL32.dll
 0002:00000148       __imp__ReadFile@20         00450148     kernel32:KERNEL32.dll
 0002:0000014c       __imp__WideCharToMultiByte@32 0045014c     kernel32:KERNEL32.dll
 0002:00000150       __imp__GetConsoleCP@0      00450150     kernel32:KERNEL32.dll
 0002:00000154       __imp__GetConsoleMode@8    00450154     kernel32:KERNEL32.dll
 0002:00000158       __imp__FlushFileBuffers@4  00450158     kernel32:KERNEL32.dll
 0002:0000015c       __imp__GetCurrentDirectoryA@8 0045015c     kernel32:KERNEL32.dll
 0002:00000160       __imp__LCMapStringA@24     00450160     kernel32:KERNEL32.dll
 0002:00000164       __imp__LCMapStringW@24     00450164     kernel32:KERNEL32.dll
 0002:00000168       __imp__GetTimeZoneInformation@4 00450168     kernel32:KERNEL32.dll
 0002:0000016c       __imp__FreeEnvironmentStringsA@4 0045016c     kernel32:KERNEL32.dll
 0002:00000170       __imp__GetEnvironmentStrings@0 00450170     kernel32:KERNEL32.dll
 0002:00000174       __imp__FreeEnvironmentStringsW@4 00450174     kernel32:KERNEL32.dll
 0002:00000178       __imp__GetEnvironmentStringsW@0 00450178     kernel32:KERNEL32.dll
 0002:0000017c       __imp__QueryPerformanceCounter@4 0045017c     kernel32:KERNEL32.dll
 0002:00000180       __imp__GetTickCount@0      00450180     kernel32:KERNEL32.dll
 0002:00000184       __imp__GetCurrentProcessId@0 00450184     kernel32:KERNEL32.dll
 0002:00000188       __imp__GetStringTypeA@20   00450188     kernel32:KERNEL32.dll
 0002:0000018c       __imp__GetStringTypeW@16   0045018c     kernel32:KERNEL32.dll
 0002:00000190       \177KERNEL32_NULL_THUNK_DATA 00450190     kernel32:KERNEL32.dll
 0002:00000194       __imp__OpenClipboard@4     00450194     user32:USER32.dll
 0002:00000198       __imp__EmptyClipboard@0    00450198     user32:USER32.dll
 0002:0000019c       __imp__SetClipboardData@8  0045019c     user32:USER32.dll
 0002:000001a0       __imp__CloseClipboard@0    004501a0     user32:USER32.dll
 0002:000001a4       __imp__GetDesktopWindow@0  004501a4     user32:USER32.dll
 0002:000001a8       __imp__GetActiveWindow@0   004501a8     user32:USER32.dll
 0002:000001ac       __imp__MessageBoxA@16      004501ac     user32:USER32.dll
 0002:000001b0       \177USER32_NULL_THUNK_DATA 004501b0     user32:USER32.dll
 0002:000001b4       __imp__timeGetTime@0       004501b4     winmm:WINMM.dll
 0002:000001b8       \177WINMM_NULL_THUNK_DATA  004501b8     winmm:WINMM.dll
 0002:000001bc       ___xc_a                    004501bc     LIBCMT:crt0init.obj
 0002:000001d8       ___xc_z                    004501d8     LIBCMT:crt0init.obj
 0002:000001dc       ___xi_a                    004501dc     LIBCMT:crt0init.obj
 0002:000001f8       ___xi_z                    004501f8     LIBCMT:crt0init.obj
 0002:000001fc       ___xp_a                    004501fc     LIBCMT:crt0init.obj
 0002:00000208       ___xp_z                    00450208     LIBCMT:crt0init.obj
 0002:0000020c       ___xt_a                    0045020c     LIBCMT:crt0init.obj
 0002:00000210       ___xt_z                    00450210     LIBCMT:crt0init.obj
 0002:0000023c       ?vec3_origin@@3QBMB        0045023c     aabbtree.obj
 0002:00000248       ??_C@_13NOLLCAOD@?$AA?$AA?$AA?$AA@ 00450248     LIBCMT:a_map.obj
 0002:00000248       __real@00000000            00450248     aabbtree.obj
 0002:00000250       __real@3e10000000000000    00450250     aabbtree.obj
 0002:00000258       __real@3fdfffffff000000    00450258     aabbtree.obj
 0002:00000260       __real@3fe0000000000000    00450260     aabbtree.obj
 0002:00000268       ??_C@_0BB@IKGFJBCG@sideOnCount?5?$DO?$DN?50?$AA@ 00450268     aabbtree.obj
 0002:0000027c       ??_C@_0BE@FFKKLADA@sideSplitCount?5?$DO?$DN?50?$AA@ 0045027c     aabbtree.obj
 0002:00000290       ??_C@_0BD@MPMHIIEB@sideBackCount?5?$DO?$DN?50?$AA@ 00450290     aabbtree.obj
 0002:000002a4       ??_C@_0BE@GAEAMBKK@sideFrontCount?5?$DO?$DN?50?$AA@ 004502a4     aabbtree.obj
 0002:000002b8       ??_C@_0BO@GJNIJBJ@?4?4?2src?2universal?2aabbtree?4cpp?$AA@ 004502b8     aabbtree.obj
 0002:000002d8       ??_C@_02DKCKIIND@?$CFs?$AA@ 004502d8     aabbtree.obj
 0002:000002e0       ??_C@_0EH@CDKLOHAI@sideFrontCount?5?$CL?5sideBackCount?5?$CL@ 004502e0     aabbtree.obj
 0002:00000328       __real@7f7fffff            00450328     aabbtree.obj
 0002:00000330       __real@47efffffe0000000    00450330     aabbtree.obj
 0002:00000338       __real@4024000000000000    00450338     aabbtree.obj
 0002:00000340       __real@3ff0000000000000    00450340     aabbtree.obj
 0002:00000348       ??_C@_0CA@NAPKBLKI@More?5than?5?$CFi?5AABB?5nodes?5needed?6?$AA@ 00450348     aabbtree.obj
 0002:00000368       ??_C@_0CC@CPGLDJHC@tree?9?$DOfirstChild?5?$DN?$DN?5aabbTreeCoun@ 00450368     aabbtree.obj
 0002:0000038c       ??_C@_0BA@GEGLLOLN@tree?9?$DOitemCount?$AA@ 0045038c     aabbtree.obj
 0002:000003a0       ??_C@_0FN@BNMEMJNO@LUMP_LIGHTGRID2D_LIGHTSLUMP_LIGH@ 004503a0     bspfile.obj
 0002:00000400       ??_C@_0BC@HJLAAKEC@LUMP_WIILIGHTGRID?$AA@ 00450400     bspfile.obj
 0002:00000414       ??_C@_0BG@MICIGHFL@LUMP_LIGHTREGION_AXES?$AA@ 00450414     bspfile.obj
 0002:0000042c       ??_C@_0BH@NIAKJADC@LUMP_LIGHTREGION_HULLS?$AA@ 0045042c     bspfile.obj
 0002:00000444       ??_C@_0BC@OBCNLAOL@LUMP_LIGHTREGIONS?$AA@ 00450444     bspfile.obj
 0002:00000458       ??_C@_0BB@KEGFNANH@LUMP_LODSURFACES?$AA@ 00450458     bspfile.obj
 0002:0000046c       ??_C@_0O@CMCENNEG@LUMP_LODINFOS?$AA@ 0045046c     bspfile.obj
 0002:0000047c       ??_C@_0P@PPJJMBFD@LUMP_LODCHAINS?$AA@ 0045047c     bspfile.obj
 0002:0000048c       ??_C@_0BJ@KLNIJMGD@LUMP_SIMPLELIGHTMAPBYTES?$AA@ 0045048c     bspfile.obj
 0002:000004a8       ??_C@_0BG@LHENHNP@LUMP_BURNABLECELLDATA?$AA@ 004504a8     bspfile.obj
 0002:000004c0       ??_C@_0BD@IMEIBHAH@LUMP_BURNABLECELLS?$AA@ 004504c0     bspfile.obj
 0002:000004d4       ??_C@_0BE@DBONIFAE@LUMP_BURNABLEHEADER?$AA@ 004504d4     bspfile.obj
 0002:000004e8       ??_C@_0BD@NDFDBKBN@LUMP_WATERCELLDATA?$AA@ 004504e8     bspfile.obj
 0002:000004fc       ??_C@_0BA@GMFPAMJO@LUMP_WATERCELLS?$AA@ 004504fc     bspfile.obj
 0002:0000050c       ??_C@_0BB@LINOLJPP@LUMP_WATERHEADER?$AA@ 0045050c     bspfile.obj
 0002:00000520       ??_C@_0BJ@FCFJINNE@LUMP_UNLAYERED_AABBTREES?$AA@ 00450520     bspfile.obj
 0002:0000053c       ??_C@_0BK@PFMCGHBA@LUMP_UNLAYERED_CULLGROUPS?$AA@ 0045053c     bspfile.obj
 0002:00000558       ??_C@_0BL@CKDIDOPP@LUMP_UNLAYERED_DRAWINDICES?$AA@ 00450558     bspfile.obj
 0002:00000574       ??_C@_0BJ@NFHGMAFG@LUMP_UNLAYERED_DRAWVERTS?$AA@ 00450574     bspfile.obj
 0002:00000590       ??_C@_0BJ@BNFEMJIC@LUMP_UNLAYERED_TRIANGLES?$AA@ 00450590     bspfile.obj
 0002:000005ac       ??_C@_0BB@OKBNPJAL@LUMP_OBSOLETE_10?$AA@ 004505ac     bspfile.obj
 0002:000005c0       ??_C@_0BD@PNOCNDNC@LUMP_LIGHTGRIDROWS?$AA@ 004505c0     bspfile.obj
 0002:000005d4       ??_C@_0BF@BCFDEEAO@LUMP_LIGHTGRIDHEADER?$AA@ 004505d4     bspfile.obj
 0002:000005ec       ??_C@_0BE@PCPCDHNA@LUMP_PRIMARY_LIGHTS?$AA@ 004505ec     bspfile.obj
 0002:00000600       ??_C@_0BH@MDHJFNHM@LUMP_VERTEX_LAYER_DATA?$AA@ 00450600     bspfile.obj
 0002:00000618       ??_C@_0BH@DCEAKNOK@LUMP_REFLECTION_PROBES?$AA@ 00450618     bspfile.obj
 0002:00000630       ??_C@_0BF@OJKEACML@LUMP_PATHCONNECTIONS?$AA@ 00450630     bspfile.obj
 0002:00000648       ??_C@_0O@FEFHONOO@LUMP_ENTITIES?$AA@ 00450648     bspfile.obj
 0002:00000658       ??_C@_0BA@JJJJNMIF@LUMP_VISIBILITY?$AA@ 00450658     bspfile.obj
 0002:00000668       ??_C@_0M@BPMHBODO@LUMP_MODELS?$AA@ 00450668     bspfile.obj
 0002:00000674       ??_C@_0BE@PGMPNBMO@LUMP_COLLISIONAABBS?$AA@ 00450674     bspfile.obj
 0002:00000688       ??_C@_0BJ@EAADCLLJ@LUMP_COLLISIONPARTITIONS?$AA@ 00450688     bspfile.obj
 0002:000006a4       ??_C@_0BG@HNFHJJMC@LUMP_COLLISIONBORDERS?$AA@ 004506a4     bspfile.obj
 0002:000006bc       ??_C@_0BL@LIHGOPOG@LUMP_COLLISIONEDGEWALKABLE?$AA@ 004506bc     bspfile.obj
 0002:000006d8       ??_C@_0BD@DBLFLJOJ@LUMP_COLLISIONTRIS?$AA@ 004506d8     bspfile.obj
 0002:000006ec       ??_C@_0BE@FFCOMNHA@LUMP_COLLISIONVERTS?$AA@ 004506ec     bspfile.obj
 0002:00000700       ??_C@_0BC@GDCJAJDH@LUMP_LEAFSURFACES?$AA@ 00450700     bspfile.obj
 0002:00000714       ??_C@_0BB@HIKJEPMN@LUMP_LEAFBRUSHES?$AA@ 00450714     bspfile.obj
 0002:00000728       ??_C@_0L@JGNBNLGM@LUMP_LEAFS?$AA@ 00450728     bspfile.obj
 0002:00000734       ??_C@_0L@KEDBCMKN@LUMP_NODES?$AA@ 00450734     bspfile.obj
 0002:00000740       ??_C@_0N@NKEJJDPM@LUMP_PORTALS?$AA@ 00450740     bspfile.obj
 0002:00000750       ??_C@_0L@JIHKDELC@LUMP_CELLS?$AA@ 00450750     bspfile.obj
 0002:0000075c       ??_C@_0P@LHGKOMKJ@LUMP_AABBTREES?$AA@ 0045075c     bspfile.obj
 0002:0000076c       ??_C@_0BA@OAIOPANP@LUMP_BRUSHVERTS?$AA@ 0045076c     bspfile.obj
 0002:0000077c       ??_C@_0BG@PFMONPBM@LUMP_BRUSHVERTSCOUNTS?$AA@ 0045077c     bspfile.obj
 0002:00000794       ??_C@_0L@CMBPKBAG@LUMP_UINDS?$AA@ 00450794     bspfile.obj
 0002:000007a0       ??_C@_0BA@KBCGJEOP@LUMP_OBSOLETE_6?$AA@ 004507a0     bspfile.obj
 0002:000007b0       ??_C@_0BB@CPKBGJGI@LUMP_PORTALVERTS?$AA@ 004507b0     bspfile.obj
 0002:000007c4       ??_C@_0BA@IKALMHCM@LUMP_OBSOLETE_5?$AA@ 004507c4     bspfile.obj
 0002:000007d4       ??_C@_0BA@JDBAPGGN@LUMP_OBSOLETE_4?$AA@ 004507d4     bspfile.obj
 0002:000007e4       ??_C@_0BA@NMFBGAKK@LUMP_OBSOLETE_3?$AA@ 004507e4     bspfile.obj
 0002:000007f4       ??_C@_0BA@MFEKFBOL@LUMP_OBSOLETE_2?$AA@ 004507f4     bspfile.obj
 0002:00000804       ??_C@_0BA@OOGHACCI@LUMP_OBSOLETE_1?$AA@ 00450804     bspfile.obj
 0002:00000814       ??_C@_0BG@FILLMHNC@LUMP_CULLGROUPINDICES?$AA@ 00450814     bspfile.obj
 0002:0000082c       ??_C@_0BA@NLJDFJPA@LUMP_CULLGROUPS?$AA@ 0045082c     bspfile.obj
 0002:0000083c       ??_C@_0BB@IKBMINLJ@LUMP_DRAWINDICES?$AA@ 0045083c     bspfile.obj
 0002:00000850       ??_C@_0P@DAEFKBCL@LUMP_DRAWVERTS?$AA@ 00450850     bspfile.obj
 0002:00000860       ??_C@_0P@PIGHKIPP@LUMP_TRIANGLES?$AA@ 00450860     bspfile.obj
 0002:00000870       ??_C@_0N@DPCCMAAJ@LUMP_BRUSHES?$AA@ 00450870     bspfile.obj
 0002:00000880       ??_C@_0BA@CCIPMHLA@LUMP_BRUSHEDGES?$AA@ 00450880     bspfile.obj
 0002:00000890       ??_C@_0BJ@JAPPNMLL@LUMP_BRUSHSIDEEDGECOUNTS?$AA@ 00450890     bspfile.obj
 0002:000008ac       ??_C@_0BA@BNCFENGJ@LUMP_BRUSHSIDES?$AA@ 004508ac     bspfile.obj
 0002:000008bc       ??_C@_0M@IPGKKCGA@LUMP_PLANES?$AA@ 004508bc     bspfile.obj
 0002:000008c8       ??_C@_0BF@JOCMPEJG@LUMP_LIGHTGRIDCOLORS?$AA@ 004508c8     bspfile.obj
 0002:000008e0       ??_C@_0BG@DKMKLI@LUMP_LIGHTGRIDENTRIES?$AA@ 004508e0     bspfile.obj
 0002:000008f8       ??_C@_0BA@GLPHLMGD@LUMP_LIGHTBYTES?$AA@ 004508f8     bspfile.obj
 0002:00000908       ??_C@_0P@JDPPODFD@LUMP_MATERIALS?$AA@ 00450908     bspfile.obj
 0002:00000918       ??_C@_0DH@PFEAJLBE@LoadBspFile?3?5buffer?5for?5lump?5?$CFi?5@ 00450918     bspfile.obj
 0002:00000950       ??_C@_0DK@MLDMFJMM@LoadBspFile?3?5lump?5?$CFi?5has?5odd?5siz@ 00450950     bspfile.obj
 0002:0000098c       ??_C@_0BG@HLMOFCME@?$CFs?5is?5not?5a?5IBSP?5file?$AA@ 0045098c     bspfile.obj
 0002:000009a4       ??_C@_0BK@CGJLKOFA@Could?5not?5load?5file?5?8?$CFs?8?6?$AA@ 004509a4     bspfile.obj
 0002:000009c0       ??_C@_0CL@BGEBKMGE@Map?5has?5too?5many?5reflection?5prob@ 004509c0     bspfile.obj
 0002:000009ec       ??_C@_0BG@JBLEEGML@?4?4?2common?2bspfile?4cpp?$AA@ 004509ec     bspfile.obj
 0002:00000a04       ??_C@_0CI@FIFLPAJI@name?$FLfrom?$FN?5?$DN?$DN?5?8_?8?5?$HM?$HM?5name?$FLfrom?$FN?5@ 00450a04     bspfile.obj
 0002:00000a2c       ??_C@_0CG@BECAFGMF@lights?$FL0?$FN?4type?5?$DN?$DN?5GFX_LIGHT_TYPE@ 00450a2c     bspfile.obj
 0002:00000a54       ??_C@_0BA@CACAMDNN@?$CFs?6?7?$CItype?$CJ?5?$DN?5?$CFi?$AA@ 00450a54     bspfile.obj
 0002:00000a64       ??_C@_0CJ@BMLJHMGP@?$CIheader?9?$DOchunks?$FLchunkIter?$FN?4type?5@ 00450a64     bspfile.obj
 0002:00000a90       ??_C@_0CK@DBAKEKKA@Adding?5Lump?5?$CFs?5wont?5fit?5?$CFd?5into?5@ 00450a90     bspfile.obj
 0002:00000abc       ??_C@_0CF@HINDCLNK@header?9?$DOchunkCount?5?$DM?5BSP_CHUNK_L@ 00450abc     bspfile.obj
 0002:00000ae8       ??_C@_0HN@IBLOJADE@diskIndices?$FLtriSoups?$FLtriSoupIter@ 00450ae8     bspfile.obj
 0002:00000b68       ??_C@_0FO@BABOEPCD@triSoups?$FLtriSoupIter?$FN?4firstIndex@ 00450b68     bspfile.obj
 0002:00000bc8       ??_C@_0FP@GLMGJMIF@triSoups?$FLtriSoupIter?$FN?4firstVerte@ 00450bc8     bspfile.obj
 0002:00000c28       ??_C@_06IHDMMOPO@?$CFs?4tmp?$AA@ 00450c28     bspfile.obj
 0002:00000c30       ??_C@_0BJ@BMHALPMM@OUTPUT?5FILE?5IS?5READ?5ONLY?$AA@ 00450c30     bspfile.obj
 0002:00000c4c       ??_C@_0DJ@LMENLAPL@could?5not?5open?5?8?$CFs?8?5for?5writing?$DL@ 00450c4c     bspfile.obj
 0002:00000c88       ??_C@_0CB@JKELGOJB@could?5not?5open?5?8?$CFs?8?5for?5writing?6@ 00450c88     bspfile.obj
 0002:00000cac       ??_C@_02GMLFBBN@wb?$AA@    00450cac     bspfile.obj
 0002:00000cb0       ??_C@_0KJ@MJLEMADG@numnodes?5is?5?$CFd?0?5exceeds?5limit?5of@ 00450cb0     bspfile.obj
 0002:00000d60       __real@4059000000000000    00450d60     bspfile.obj
 0002:00000d68       ??_C@_0EK@MFGEOIIL@ParseEpair?3?5value?5?8?$CFs?8?5contains?5@ 00450d68     bspfile.obj
 0002:00000db8       ??_C@_0FD@HAIPPBHF@ParseEpair?3?5value?5?8?$CFs?8?5contains?5@ 00450db8     bspfile.obj
 0002:00000e0c       ??_C@_0CI@CNAGFDDA@ParseEpair?3?5value?5?8?$CFs?8?5ends?5with@ 00450e0c     bspfile.obj
 0002:00000e38       ??_C@_0EI@JCNEDGFA@ParseEpair?3?5key?5?8?$CFs?8?5contains?5a?5@ 00450e38     bspfile.obj
 0002:00000e80       ??_C@_0DD@OOAMNCCC@ParseEpair?3?5key?5?8?$CFs?8?5contains?5a?5@ 00450e80     bspfile.obj
 0002:00000eb4       ??_C@_0CG@GFPCKDCJ@ParseEpair?3?5key?5?8?$CFs?8?5ends?5with?5a@ 00450eb4     bspfile.obj
 0002:00000edc       ??_C@_0CA@JMEDJFFL@ParseEpair?3?5token?5?8?$CFs?8?5too?5long?$AA@ 00450edc     bspfile.obj
 0002:00000efc       ??_C@_01CELHOKLL@?$HN?$AA@ 00450efc     bspfile.obj
 0002:00000f00       ??_C@_0CH@DFFBFKCE@ParseEntity?3?5EOF?5without?5closing@ 00450f00     bspfile.obj
 0002:00000f28       ??_C@_0BK@LBCOMBAD@MAX_MAP_ENTITIES?5exceeded?$AA@ 00450f28     bspfile.obj
 0002:00000f44       ??_C@_0BJ@FJKNDMCD@ParseEntity?3?5?$HL?5not?5found?$AA@ 00450f44     bspfile.obj
 0002:00000f60       ??_C@_01HCONENDN@?$HL?$AA@ 00450f60     bspfile.obj
 0002:00000f68       ??_C@_0HO@DAJBOLEC@Entity?5string?5buffer?5overflow?4?5?5@ 00450f68     bspfile.obj
 0002:00000fe8       ??_C@_0BL@IILHLENA@end?5?$DN?$DN?5buf?5?$CL?5strlen?$CI?5buf?5?$CJ?$AA@ 00450fe8     bspfile.obj
 0002:00001004       ??_C@_02KGHIDFGE@?$HN?6?$AA@ 00451004     bspfile.obj
 0002:00001008       ??_C@_0L@KFNFGCAJ@?$CC?$CFs?$CC?5?$CC?$CFs?$CC?6?$AA@ 00451008     bspfile.obj
 0002:00001014       ??_C@_02KCPFEJNG@?$HL?6?$AA@ 00451014     bspfile.obj
 0002:00001018       ??_C@_05MFEJDJP@value?$AA@ 00451018     bspfile.obj
 0002:00001020       ??_C@_03ICHNJLJF@key?$AA@  00451020     bspfile.obj
 0002:00001024       ??_C@_00CNPNBAHC@?$AA@     00451024     bspfile.obj
 0002:00001028       ??_C@_07EDLFMOMH@?4?$CFspoly?$AA@ 00451028     bspfile.obj
 0002:00001030       ??_C@_06GDBLMMIK@?4?$CFsprt?$AA@ 00451030     bspfile.obj
 0002:00001038       ??_C@_06PMKFPMKN@?4?$CFsbsp?$AA@ 00451038     bspfile.obj
 0002:00001040       ??_C@_0FI@NFJDDHAA@strlen?$CI?5root?5?$CJ?5?$CL?5strlen?$CI?5POLYFIL@ 00451040     bspfile.obj
 0002:00001098       ??_C@_0FF@GDCMBJBP@strlen?$CI?5root?5?$CJ?5?$CL?5strlen?$CI?5PORTAL_@ 00451098     bspfile.obj
 0002:000010f0       ??_C@_0FC@IGOJBIHC@strlen?$CI?5root?5?$CJ?5?$CL?5strlen?$CI?5BSP_EXT@ 004510f0     bspfile.obj
 0002:00001144       ??_C@_0BE@KNLOMJNP@bspFileExtension?$FL0?$FN?$AA@ 00451144     bspfile.obj
 0002:00001158       ??_C@_0BF@NFCNFOJI@polyFileExtension?$FL0?$FN?$AA@ 00451158     bspfile.obj
 0002:00001170       ??_C@_0DB@EHMNIPBC@c?3?2cod?2cod5?2cod?2codsrc?2src?2unive@ 00451170     bspfile.obj
 0002:000011a4       ??_C@_0CG@DMJJLMIL@i?5?$DN?$DN?5static_cast?$DM?5Type?5?$DO?$CI?5i?5?$CJ?6?7?$CF@ 004511a4     bspfile.obj
 0002:000011cc       ??_C@_0DJ@ELGECMBD@Not?5supporting?5old?5wii?5lightgrid@ 004511cc     bspfile.obj
 0002:00001208       ??_C@_0DH@BJIEEBK@unlayeredCount?5?$DN?$DN?5numCullGroups?5@ 00451208     bspfile.obj
 0002:00001240       ??_C@_0EK@JGPEKBCB@Number?5of?5brush?5side?5edge?5counts@ 00451240     bspfile.obj
 0002:0000128c       ??_C@_0CN@MBDGHCCJ@bsp?5is?5version?5?$CFi?0?5not?5?$CFi?5?9?5reco@ 0045128c     bspfile.obj
 0002:000012bc       ??_C@_0DJ@COPKDLAL@?$CFs?5is?5version?5?$CFi?0?5but?5the?5compil@ 004512bc     bspfile.obj
 0002:000012f8       ??_C@_0DJ@LPEBPDDC@?$CFs?5is?5version?5?$CFi?0?5but?5?$CFi?5is?5the?5@ 004512f8     bspfile.obj
 0002:00001338       __real@0000000000000000    00451338     bspfile.obj
 0002:00001340       ??_C@_01EEMJAFIK@?6?$AA@   00451340     bspfile.obj
 0002:00001344       ??_C@_0L@PMAFMKKM@misc_model?$AA@ 00451344     bspfile.obj
 0002:00001350       ??_C@_09CNJINBGN@classname?$AA@ 00451350     bspfile.obj
 0002:0000135c       ??_C@_05NCCFOPHA@model?$AA@ 0045135c     bspfile.obj
 0002:00001364       ??_C@_06NHCMNMEH@origin?$AA@ 00451364     bspfile.obj
 0002:0000136c       ??_C@_05PLFJAAJA@gndLt?$AA@ 0045136c     bspfile.obj
 0002:00001374       ??_C@_02JDPG@rb?$AA@       00451374     cmdlib.obj
 0002:00001378       ??_C@_0CI@IEFNGHIO@File?5read?5failure?5?9?5read?5?$CFi?5of?5?$CF@ 00451378     cmdlib.obj
 0002:000013a0       ??_C@_0BK@PNKEIKNL@?4?4?2libs?2cmdlib?2cmdlib?4cpp?$AA@ 004513a0     cmdlib.obj
 0002:000013bc       ??_C@_0BB@CEBPGEAC@?$CFs?6?7?$CIcount?$CJ?5?$DN?5?$CFi?$AA@ 004513bc     cmdlib.obj
 0002:000013d0       ??_C@_0M@MNBNCNON@?$CIcount?5?$DO?50?$CJ?$AA@ 004513d0     cmdlib.obj
 0002:000013dc       ??_C@_0CK@JEBMAOKA@File?5write?5failure?5?9?5wrote?5?$CFi?5of@ 004513dc     cmdlib.obj
 0002:00001408       ??_C@_0N@EBKOIAFA@?$CIcount?5?$DO?$DN?50?$CJ?$AA@ 00451408     cmdlib.obj
 0002:00001418       ??_C@_0CO@NPDCOEMA@?$CKpos?5?$DN?$DN?5?8?20?8?5?$HM?$HM?5pos?5?$DN?$DN?5path?5?$HM?$HM?5p@ 00451418     cmdlib.obj
 0002:00001448       ??_C@_0M@CGAILHMD@pos?5?$DO?$DN?5path?$AA@ 00451448     cmdlib.obj
 0002:00001454       ??_C@_04LNEJFJGI@path?$AA@ 00451454     cmdlib.obj
 0002:0000145c       ??_C@_0BH@BHEHNPL@install?5directory?3?5?$CFs?6?$AA@ 0045145c     cmdlib.obj
 0002:00001474       ??_C@_01KMDKNFGN@?1?$AA@   00451474     cmdlib.obj
 0002:00001478       ??_C@_06GCNAGAEM@share?1?$AA@ 00451478     cmdlib.obj
 0002:00001480       ??_C@_0DM@NNEIAEJE@There?5should?5be?5two?5folders?5belo@ 00451480     cmdlib.obj
 0002:000014bc       ??_C@_0BB@PHDJDJPA@No?5?8?$CFs?8?5in?5?8?$CFs?8?6?$AA@ 004514bc     cmdlib.obj
 0002:000014d0       ??_C@_04ILAGGJBN@maps?$AA@ 004514d0     cmdlib.obj
 0002:000014d8       ??_C@_0CB@IFGJNLFI@couldn?8t?5get?5full?5path?5for?5?8?$CFs?8?6@ 004514d8     cmdlib.obj
 0002:000014fc       ??_C@_07FMAMAFJE@fs_game?$AA@ 004514fc     cmdlib_filesystem.obj
 0002:00001504       ??_C@_0M@HHPKLILN@fs_basegame?$AA@ 00451504     cmdlib_filesystem.obj
 0002:00001510       ??_C@_0M@DGDBFJN@fs_basepath?$AA@ 00451510     cmdlib_filesystem.obj
 0002:0000151c       ??_C@_0DL@CHDLBDJL@Causes?5all?5lights?5to?5be?5treated?5@ 0045151c     cmdline.obj
 0002:00001558       ??_C@_0O@EKMAAJAM@?9NoPrimaryVis?$AA@ 00451558     cmdline.obj
 0002:00001568       ??_C@_0CN@GGGCHKLM@Displays?5current?5settings?5of?5mos@ 00451568     cmdline.obj
 0002:00001598       ??_C@_0N@FBCJNNBG@?9DumpOptions?$AA@ 00451598     cmdline.obj
 0002:000015a8       ??_C@_0DD@MJCHNIMO@Allows?5using?5more?5or?5fewer?5threa@ 004515a8     cmdline.obj
 0002:000015dc       ??_C@_08NMBDPMED@?9Threads?$AA@ 004515dc     cmdline.obj
 0002:000015e8       ??_C@_0DF@HMPCNHHH@Sample?5directions?5used?5to?5approx@ 004515e8     cmdline.obj
 0002:00001620       ??_C@_0P@LKBOPPJO@?9BasisDirCount?$AA@ 00451620     cmdline.obj
 0002:00001630       ??_C@_0DI@ONGPMFPP@Disable?5optimization?5of?5using?5re@ 00451630     cmdline.obj
 0002:00001668       ??_C@_0L@FECGFBJB@?9NoRelight?$AA@ 00451668     cmdline.obj
 0002:00001674       ??_C@_0DA@BHBKDLDI@Increase?5lighting?5contrast?5?$CI0?5no@ 00451674     cmdline.obj
 0002:000016a4       ??_C@_0O@KJENHENF@?9ContrastGain?$AA@ 004516a4     cmdline.obj
 0002:000016b4       ??_C@_0DI@CPPNAKHN@Gamma?5value?5assumed?5to?5be?5implic@ 004516b4     cmdline.obj
 0002:000016ec       ??_C@_06IPFDDBLP@?9Gamma?$AA@ 004516ec     cmdline.obj
 0002:000016f4       ??_C@_0DG@IEMEEFLA@Point?5sample?5lightmap?5pixels?5hit@ 004516f4     cmdline.obj
 0002:0000172c       ??_C@_0BC@GGACPOIM@?9TraceFilterPoint?$AA@ 0045172c     cmdline.obj
 0002:00001740       ??_C@_0DI@MBPEDIKE@Linearly?5filter?5lightmap?5pixels?5@ 00451740     cmdline.obj
 0002:00001778       ??_C@_0BD@PAIKPJKM@?9TraceFilterLinear?$AA@ 00451778     cmdline.obj
 0002:0000178c       ??_C@_0DG@KAJLLNNG@Scales?5intensity?5of?5all?5bounced?5@ 0045178c     cmdline.obj
 0002:000017c4       ??_C@_0BA@LAGAHLCP@?9RadiosityScale?$AA@ 004517c4     cmdline.obj
 0002:000017d4       ??_C@_0DF@EKNDOII@Stops?5radiosity?5after?5N?5bounces?5@ 004517d4     cmdline.obj
 0002:0000180c       ??_C@_0M@GCAAGODM@?9MaxBounces?$AA@ 0045180c     cmdline.obj
 0002:00001818       ??_C@_0CL@GHHGHBLC@Turns?5each?5sample?5into?5NxN?5sampl@ 00451818     cmdline.obj
 0002:00001844       ??_C@_0N@EMMOKCDG@?9SuperSample?$AA@ 00451844     cmdline.obj
 0002:00001854       ??_C@_0DB@OBEJMGDG@Does?5N?5lookups?5to?5antialias?5each@ 00451854     cmdline.obj
 0002:00001888       ??_C@_0BC@MHCFAEIM@?9SuperSampleAlpha?$AA@ 00451888     cmdline.obj
 0002:0000189c       ??_C@_0DG@HDGLJDMP@Breaks?5up?5aliasing?5from?5trace?5pa@ 0045189c     cmdline.obj
 0002:000018d4       ??_C@_07IMDEEAMP@?9Jitter?$AA@ 004518d4     cmdline.obj
 0002:000018dc       ??_C@_0CO@OCDCCHDM@Number?5of?5traces?5to?5do?5from?5each@ 004518dc     cmdline.obj
 0002:0000190c       ??_C@_07KOBBBDJB@?9Traces?$AA@ 0045190c     cmdline.obj
 0002:00001914       ??_C@_0CN@NPFNIMHF@Prevents?5model?5surfaces?5from?5cas@ 00451914     cmdline.obj
 0002:00001944       ??_C@_0P@BOGDDPPN@?9NoModelShadow?$AA@ 00451944     cmdline.obj
 0002:00001954       ??_C@_0CG@BKCCDEHJ@Allows?5model?5surfaces?5to?5cast?5sh@ 00451954     cmdline.obj
 0002:0000197c       ??_C@_0N@OFPMLAJL@?9ModelShadow?$AA@ 0045197c     cmdline.obj
 0002:0000198c       ??_C@_0CN@DCLAICDL@Use?5high?9quality?5presets?5for?5sev@ 0045198c     cmdline.obj
 0002:000019bc       ??_C@_06JFAAJJBP@?9Extra?$AA@ 004519bc     cmdline.obj
 0002:000019c4       ??_C@_0CF@ELMHEFND@Use?5fast?5presets?5for?5several?5opt@ 004519c4     cmdline.obj
 0002:000019ec       ??_C@_05LMMCBPMA@?9Fast?$AA@ 004519ec     cmdline.obj
 0002:000019f4       ??_C@_0BK@PGNDFKLF@Target?5platform?5?$CIpc?0?5etc?$CJ?$AA@ 004519f4     cmdline.obj
 0002:00001a10       ??_C@_09BMKDCPIB@?9Platform?$AA@ 00451a10     cmdline.obj
 0002:00001a1c       ??_C@_0BH@MLFJKIPC@Sets?5the?5warning?5level?$AA@ 00451a1c     cmdline.obj
 0002:00001a34       ??_C@_05FAKNDBBO@?9Warn?$AA@ 00451a34     cmdline.obj
 0002:00001a3c       ??_C@_0DI@CKPDKFI@Turns?5off?5progress?5counters?5?$CIcan@ 00451a3c     cmdline.obj
 0002:00001a74       ??_C@_06HJHIMBIA@?9Quiet?$AA@ 00451a74     cmdline.obj
 0002:00001a7c       ??_C@_0BI@EHLCFFAC@Turns?5on?5verbose?5prints?$AA@ 00451a7c     cmdline.obj
 0002:00001a94       ??_C@_08KIOPDBPP@?9Verbose?$AA@ 00451a94     cmdline.obj
 0002:00001bb4       __real@40600000            00451bb4     cmdline.obj
 0002:00001bb8       __real@400ccccd            00451bb8     cmdline.obj
 0002:00001bbc       __real@3e99999a            00451bbc     cmdline.obj
 0002:00001bc0       ??_C@_04GHJNJNPO@main?$AA@ 00451bc0     cmdline.obj
 0002:00001bc8       __real@3f333333            00451bc8     cmdline.obj
 0002:00001bcc       __real@3f31be7f            00451bcc     cmdline.obj
 0002:00001bd0       __real@3f116d09            00451bd0     cmdline.obj
 0002:00001bd4       __real@3ee23832            00451bd4     cmdline.obj
 0002:00001bd8       __real@3f400000            00451bd8     cmdline.obj
 0002:00001bdc       ??_C@_0BE@BBIAGDIC@?$CFs?3?5clamping?5to?5?$CFi?6?$AA@ 00451bdc     cmdline.obj
 0002:00001bf0       ??_C@_0BG@LEJEKPAD@?$CFs?3?5missing?5argument?6?$AA@ 00451bf0     cmdline.obj
 0002:00001c08       ??_C@_09BHLGDBEG@min?5?$DM?5max?$AA@ 00451c08     cmdline.obj
 0002:00001c14       ??_C@_0O@HNOEFMHI@?4?2cmdline?4cpp?$AA@ 00451c14     cmdline.obj
 0002:00001c24       ??_C@_09HJJJIOLB@argc?5?$DO?$DN?51?$AA@ 00451c24     cmdline.obj
 0002:00001c30       ??_C@_0BE@BLBOEOII@?$CFs?3?5clamping?5to?5?$CFg?6?$AA@ 00451c30     cmdline.obj
 0002:00001c44       ??_C@_0CA@JDEDNCFC@targetPlatform?5?$CB?$DN?5PLATFORM_VOID?$AA@ 00451c44     cmdline.obj
 0002:00001c64       __real@41200000            00451c64     cmdline.obj
 0002:00001c68       __real@3e800000            00451c68     cmdline.obj
 0002:00001c6c       __real@40800000            00451c6c     cmdline.obj
 0002:00001c70       ??_C@_09BCFNPKMB@?$CF?930s?5?$CFs?6?$AA@ 00451c70     cmdline.obj
 0002:00001c7c       ??_C@_08BEHKFNNO@disabled?$AA@ 00451c7c     cmdline.obj
 0002:00001c88       ??_C@_07MHHIKOPA@enabled?$AA@ 00451c88     cmdline.obj
 0002:00001c90       ??_C@_09DOMNMGH@?$CF?930s?5?$CFi?6?$AA@ 00451c90     cmdline.obj
 0002:00001c9c       ??_C@_09JHCPBGN@?$CF?930s?5?$CFg?6?$AA@ 00451c9c     cmdline.obj
 0002:00001ca8       ??_C@_0BC@NLDBBBKC@verbose?5messages?3?$AA@ 00451ca8     cmdline.obj
 0002:00001cbc       ??_C@_0BH@FPGIBCAJ@basis?5direction?5count?3?$AA@ 00451cbc     cmdline.obj
 0002:00001cd4       ??_C@_0P@MNGNGCBN@model?5shadows?3?$AA@ 00451cd4     cmdline.obj
 0002:00001ce4       ??_C@_0CA@DGHOCNHN@linear?5filter?5radiosity?5traces?3?$AA@ 00451ce4     cmdline.obj
 0002:00001d04       ??_C@_0BJ@OOHADAOB@lightmap?5super?5sampling?3?$AA@ 00451d04     cmdline.obj
 0002:00001d20       ??_C@_0BG@MPNAEB@alpha?5super?5sampling?3?$AA@ 00451d20     cmdline.obj
 0002:00001d38       ??_C@_07CHBNPJHN@jitter?3?$AA@ 00451d38     cmdline.obj
 0002:00001d40       ??_C@_07KLOMKANN@traces?3?$AA@ 00451d40     cmdline.obj
 0002:00001d48       ??_C@_0N@FHJLBLBD@max?5bounces?3?$AA@ 00451d48     cmdline.obj
 0002:00001d58       ??_C@_06CLHIGNFJ@gamma?3?$AA@ 00451d58     cmdline.obj
 0002:00001d60       ??_C@_0P@FEPALIGH@contrast?5gain?3?$AA@ 00451d60     cmdline.obj
 0002:00001d70       ??_C@_0BB@BNJFKMFH@radiosity?5scale?3?$AA@ 00451d70     cmdline.obj
 0002:00001d84       ??_C@_0BD@KCJFDICP@number?5of?5threads?3?$AA@ 00451d84     cmdline.obj
 0002:00001d98       ??_C@_09NOPHPKFP@?$CF?920s?5?$CFs?6?$AA@ 00451d98     cmdline.obj
 0002:00001da8       ??_C@_0EM@IDBLLPHH@Options?5ignore?5capitalization?$DL?5i@ 00451da8     cmdline.obj
 0002:00001df8       ??_C@_0EK@DDFJKCBD@USAGE?3?5cod2rad?5?$FLargs?$FN?5mapname?0?5w@ 00451df8     cmdline.obj
 0002:00001e44       ??_C@_0BH@PIPDNFFE@Unknown?5argument?5?8?$CFs?8?6?$AA@ 00451e44     cmdline.obj
 0002:00001e5c       ??_C@_03ENEDLFNN@d3d?$AA@  00451e5c     cmdline.obj
 0002:00001e60       ??_C@_0P@GHFPNOJB@bad?5allocation?$AA@ 00451e60     cod2rad.obj
 0002:00001e70       ??_C@_0BO@DNCIPOC@Unhandled?5out?5of?5memory?5error?$AA@ 00451e70     cod2rad.obj
 0002:00001e90       ??_C@_0M@EMLLBDNG@?$CFi?5seconds?6?$AA@ 00451e90     cod2rad.obj
 0002:00001e9c       ??_C@_0M@EBALPLCJ@?$CFi?5minutes?5?$AA@ 00451e9c     cod2rad.obj
 0002:00001ea8       ??_C@_09MOHLEALK@?$CFi?5hours?5?$AA@ 00451ea8     cod2rad.obj
 0002:00001eb4       ??_C@_0CD@DFOGMMKA@?6Entire?5light?5compile?5finished?5i@ 00451eb4     cod2rad.obj
 0002:00001ed8       ?notFound@?1??CountLeadingZeros@@YAIH@Z@4HB 00451ed8     compile.obj
 0002:00001edc       ??_C@_0CK@MHNAAPOE@c?3?2cod?2cod5?2cod?2codsrc?2cod2rad?2l@ 00451edc     compile.obj
 0002:00001f08       ??_C@_0N@DNGCCGBL@sample?9?$DOvars?$AA@ 00451f08     compile.obj
 0002:00001f18       ??_C@_0L@LPGAGGLC@sampleVars?$AA@ 00451f18     compile.obj
 0002:00001f24       ??_C@_0DM@HJKNLIGK@Out?5of?5memory?5initializing?5small@ 00451f24     compile.obj
 0002:00001f60       ??_C@_0O@ICEDAIFI@poolCount?5?$DO?50?$AA@ 00451f60     compile.obj
 0002:00001f70       ??_C@_0CK@JJDMIBMN@?$CIpoolCount?5?$CG?5?$CIblockGranularity?5?9@ 00451f70     compile.obj
 0002:00001f9c       ??_C@_0DH@HPDGPDDD@blockGranularity?5?$DO?50?5?$CG?$CG?5IsPowerO@ 00451f9c     compile.obj
 0002:00001fd8       ??_C@_0EB@MNBLJIBC@blockSize?5?$CK?5blockGranularity?5?$DO?$DN?5@ 00451fd8     compile.obj
 0002:0000201c       ??_C@_0O@EPGGODP@?4?2compile?4cpp?$AA@ 0045201c     compile.obj
 0002:0000202c       ??_C@_0L@OHHJMLGB@blockAlloc?$AA@ 0045202c     compile.obj
 0002:00002038       ??_C@_0CM@GMMJOPNM@allocCount?5?$DM?$DN?5blockAlloc?9?$DOpoolTo@ 00452038     compile.obj
 0002:00002064       ??_C@_0O@NALGGDJF@Out?5of?5memory?$AA@ 00452064     compile.obj
 0002:00002078       __real@4000000000000000    00452078     compile.obj
 0002:00002080       __real@40000000            00452080     compile.obj
 0002:00002088       __real@4008000000000000    00452088     compile.obj
 0002:00002090       __real@3fe8000000000000    00452090     compile.obj
 0002:00002098       ??_C@_0ON@LGMODPP@?$CBIS_NAN?$CI?$CIsampleVars?9?$DOunscattered@ 00452098     compile.obj
 0002:00002188       ??_C@_0GG@INPACJCF@?$CBIS_NAN?$CI?$CItransferredEnergy?$CJ?$FL0?$FN?$CJ?5@ 00452188     compile.obj
 0002:000021f0       ??_C@_0CB@NJJJKHMN@sampleVars?9?$DOdirectTransportCount@ 004521f0     compile.obj
 0002:00002214       ??_C@_0BC@HKMPAOIC@?$CFs?6?7?$CIweight?$CJ?5?$DN?5?$CFg?$AA@ 00452214     compile.obj
 0002:00002228       ??_C@_0BF@KIJKFHAD@?$CIweight?5?$DO?$DN?5?91?40e?95f?$CJ?$AA@ 00452228     compile.obj
 0002:00002240       __real@b727c5ac            00452240     compile.obj
 0002:00002244       ??_C@_0CM@DHIHCAEB@influenceType?5?$DN?$DN?5LIGHT_INFLUENCE@ 00452244     compile.obj
 0002:00002270       __real@3fd0000000000000    00452270     compile.obj
 0002:00002278       __real@3feff7cee0000000    00452278     compile.obj
 0002:00002280       ??_C@_0CP@IHBAAIOO@Out?5of?5memory?5allocating?5?$CFi?5radi@ 00452280     compile.obj
 0002:000022b0       __real@3fd5555560000000    004522b0     compile.obj
 0002:000022b8       ??_C@_0HC@NMCIKNNE@?$CBIS_NAN?$CI?$CIgatheredIncidentLight?$CJ?$FL@ 004522b8     compile.obj
 0002:0000232c       ??_C@_0P@NCKMJL@toSample?9?$DOvars?$AA@ 0045232c     compile.obj
 0002:0000233c       ??_C@_08DPDNFKIM@toSample?$AA@ 0045233c     compile.obj
 0002:00002348       ??_C@_0EB@JOLLBMEM@Reducing?5the?5radiosity?5scale?5can@ 00452348     compile.obj
 0002:00002390       ??_C@_0EK@EHHIHBJC@This?5can?5usually?5be?5fixed?5by?5cha@ 00452390     compile.obj
 0002:000023dc       ??_C@_0DH@FLEGPKPL@?6?6Aborting?5radiosity?5due?5to?5a?5po@ 004523dc     compile.obj
 0002:00002414       ??_C@_0BH@MEEDKIFB@Radiosity?5bounce?5?$CFi?4?4?4?$AA@ 00452414     compile.obj
 0002:0000242c       ??_C@_0DB@PCHHAPDL@Calculating?5ground?5lighting?5for?5@ 0045242c     compile.obj
 0002:00002460       ??_C@_0BM@NEOFMPFB@Building?5final?5lightmaps?4?4?4?$AA@ 00452460     compile.obj
 0002:0000247c       ??_C@_0BN@MGANNLMH@Finding?5lightmap?5bleeding?4?4?4?$AA@ 0045247c     compile.obj
 0002:0000249c       __real@3a83126f            0045249c     compile.obj
 0002:000024a0       ??_C@_0BF@OGCCCINE@Seeding?5sky?5light?4?4?4?$AA@ 004524a0     compile.obj
 0002:000024b8       ??_C@_0CB@ODPHGLIF@Normalizing?5transport?5weights?4?4?4@ 004524b8     compile.obj
 0002:000024dc       ??_C@_0CL@DPPGHGFJ@Building?5light?5transport?5for?5eve@ 004524dc     compile.obj
 0002:00002508       ??_C@_0CO@EAABJIMH@Building?5light?5transport?5for?5lig@ 00452508     compile.obj
 0002:00002538       ??_C@_0BM@HGKMKELG@Applying?5radiosity?5scale?4?4?4?$AA@ 00452538     compile.obj
 0002:00002554       ??_C@_0CL@EOMFDHN@Getting?5radiosity?5color?5for?5each@ 00452554     compile.obj
 0002:00002580       ??_C@_0BM@PKMAACPP@Calculating?5sample?5areas?4?4?4?$AA@ 00452580     compile.obj
 0002:0000259c       __real@3c23d70a            0045259c     compile.obj
 0002:000025a0       ??_C@_0BJ@GGILJKOL@trace?4out?4uniqueHitCount?$AA@ 004525a0     compile.obj
 0002:000025c0       __real@4110000000000000    004525c0     compile.obj
 0002:000025c8       __real@3fc0000000000000    004525c8     compile.obj
 0002:000025d0       ??_C@_0BF@COIGLOMK@?$CFs?6?7?$CIsubAreaX2?$CJ?5?$DN?5?$CFg?$AA@ 004525d0     compile.obj
 0002:000025e8       ??_C@_0BA@HBOJJCJC@?$CIsubAreaX2?5?$DO?50?$CJ?$AA@ 004525e8     compile.obj
 0002:000025f8       ??_C@_0BI@DFIPGCMC@subSample?9?$DOsample?9?$DOvars?$AA@ 004525f8     compile.obj
 0002:00002610       ??_C@_0BC@LFFJGPLM@subSample?9?$DOsample?$AA@ 00452610     compile.obj
 0002:00002624       ??_C@_09KLLOBJFN@subSample?$AA@ 00452624     compile.obj
 0002:00002630       ??_C@_0DC@JAAPLDIM@s?5doesn?8t?5index?5LMAP_WIDTH_MIN?6?7@ 00452630     compile.obj
 0002:00002664       ??_C@_0DD@IFNAFLLM@t?5doesn?8t?5index?5LMAP_HEIGHT_MIN?6@ 00452664     compile.obj
 0002:00002698       __real@4080000000000000    00452698     compile.obj
 0002:000026a0       __real@48800000            004526a0     compile.obj
 0002:000026a8       __real@3f10002000000000    004526a8     compile.obj
 0002:000026b0       __real@3fb99999a0000000    004526b0     compile.obj
 0002:000026b8       ??_C@_0M@JBIJLGGK@v1?5?$CB?$DN?5cross?$AA@ 004526b8     geometry.obj
 0002:000026c4       ??_C@_0DC@PPMHCFH@c?3?2cod?2cod5?2cod?2codsrc?2src?2unive@ 004526c4     geometry.obj
 0002:000026f8       ??_C@_0M@FAAHGJKK@v0?5?$CB?$DN?5cross?$AA@ 004526f8     geometry.obj
 0002:00002704       ??_C@_0DK@CONMPIPN@Small?5hunk?5ran?5out?5of?5memory?5att@ 00452704     geometry.obj
 0002:00002740       ??_C@_02FODMLBIE@or?$AA@   00452740     geometry.obj
 0002:00002744       ??_C@_0P@CBLILEMH@?4?2geometry?4cpp?$AA@ 00452744     geometry.obj
 0002:00002758       ??_C@_0EM@EBJKCHPI@vertIndex?5doesn?8t?5index?5diskVert@ 00452758     geometry.obj
 0002:000027a4       ??_C@_0CD@ECEPGOPP@?$CFs?6?7?$CIsurf?9?$DOprimaryLightIndex?$CJ?5?$DN?5@ 004527a4     geometry.obj
 0002:000027c8       ??_C@_0HA@GNODLCHL@?$CI?$CIsurf?9?$DOprimaryLightIndex?5?$DO?$DN?50?5?$CG@ 004527c8     geometry.obj
 0002:00002838       ??_C@_0BC@EBDNNPDB@mtlName?$FL0?$FN?5?$CB?$DN?5?8?$CK?8?$AA@ 00452838     geometry.obj
 0002:0000284c       ??_C@_0BG@LGEBGACL@?$CFs?6?7?$CImodelIndex?$CJ?5?$DN?5?$CFi?$AA@ 0045284c     geometry.obj
 0002:00002868       ??_C@_0ML@CBFKIGDP@?$CImodelIndex?5?$DO?$DN?50?5?$CG?$CG?5modelIndex?5?$DM@ 00452868     geometry.obj
 0002:00002938       ??_C@_0IJ@MAIFLEKH@MAX_MAP_TRIANGLES?5?$CI?$CFi?$CJ?5exceeded?4@ 00452938     geometry.obj
 0002:000029c8       ??_C@_0IC@KKOKIFGL@MAX_MAP_DRAW_VERTS?5?$CI?$CFi?$CJ?5exceeded@ 004529c8     geometry.obj
 0002:00002a4c       ??_C@_06BIGIFAFA@mskMtl?$AA@ 00452a4c     geometry.obj
 0002:00002a54       ??_C@_0BO@NGMJGALO@?$CFs?6?7?$CImskMtl?9?$DOmaskHeight?$CJ?5?$DN?5?$CFi?$AA@ 00452a54     geometry.obj
 0002:00002a74       ??_C@_0DN@NNMBGFFE@?$CI?$CI?$CI?$CImskMtl?9?$DOmaskHeight?$CJ?5?$CG?5?$CI?$CImskM@ 00452a74     geometry.obj
 0002:00002ab4       ??_C@_0BN@DKIBFNDO@?$CFs?6?7?$CImskMtl?9?$DOmaskWidth?$CJ?5?$DN?5?$CFi?$AA@ 00452ab4     geometry.obj
 0002:00002ad4       ??_C@_0DL@GPNMEFJM@?$CI?$CI?$CI?$CImskMtl?9?$DOmaskWidth?$CJ?5?$CG?5?$CI?$CImskMt@ 00452ad4     geometry.obj
 0002:00002b10       ??_C@_0GM@LPJECPKG@options?4supersampleAlphaCount?5no@ 00452b10     geometry.obj
 0002:00002b7c       __real@bf800000            00452b7c     geometry.obj
 0002:00002b80       ??_C@_0BH@KFAHLFPI@bspLeaf?9?$DOtriCount?5?$DO?$DN?50?$AA@ 00452b80     geometry.obj
 0002:00002b98       __real@3f2921fb60000000    00452b98     geometry.obj
 0002:00002ba0       __real@4f800000            00452ba0     geometry.obj
 0002:00002ba4       ??_C@_0L@CLIJDCEP@sampleMask?$AA@ 00452ba4     geometry.obj
 0002:00002bb0       __real@bfb99999a0000000    00452bb0     geometry.obj
 0002:00002bb8       ??_C@_0BC@OGPBFHGF@?$CFs?6?7?$CIradius?$CJ?5?$DN?5?$CFg?$AA@ 00452bb8     geometry.obj
 0002:00002bcc       ??_C@_0BA@HOGNMPOB@?$CIradius?5?$DO?50?40f?$CJ?$AA@ 00452bcc     geometry.obj
 0002:00002bdc       ??_C@_0DB@FECCFAOE@Couldn?8t?5allocate?5?$CFi?5bytes?5for?5s@ 00452bdc     geometry.obj
 0002:00002c10       ??_C@_0CE@NLAPNNAH@geoGlob?4hunk?$FLthreadIndex?$FN?4used?5?$DN@ 00452c10     geometry.obj
 0002:00002c38       ??_C@_0HK@IBBDJKKE@geoGlob?4firstBrushSide?$FLbrushInde@ 00452c38     geometry.obj
 0002:00002cb4       ??_C@_0DC@NEPMAOIC@Couldn?8t?5allocate?5?$CFi?5bytes?5for?5f@ 00452cb4     geometry.obj
 0002:00002ce8       __real@3f60624de0000000    00452ce8     geometry.obj
 0002:00002cf0       ??_C@_0BI@HCLMGDO@sideCount?$FLSIDE_ON?$FN?5?$DO?$DN?50?$AA@ 00452cf0     geometry.obj
 0002:00002d08       ??_C@_0BL@MOFIODNM@sideCount?$FLSIDE_CROSS?$FN?5?$DO?$DN?50?$AA@ 00452d08     geometry.obj
 0002:00002d24       ??_C@_0BK@CPHJIOEH@sideCount?$FLSIDE_BACK?$FN?5?$DO?$DN?50?$AA@ 00452d24     geometry.obj
 0002:00002d40       ??_C@_0BL@BLBDIPD@sideCount?$FLSIDE_FRONT?$FN?5?$DO?$DN?50?$AA@ 00452d40     geometry.obj
 0002:00002d60       ??_C@_0GG@GKCDNEKA@sideCount?$FLSIDE_FRONT?$FN?5?$CL?5sideCoun@ 00452d60     geometry.obj
 0002:00002dc8       __real@c8000040            00452dc8     geometry.obj
 0002:00002dcc       ??_C@_0CI@HMLFNCHN@countMinMax?5?$CL?5countCoplanar?5?$DN?$DN?5t@ 00452dcc     geometry.obj
 0002:00002df4       ??_C@_0BK@MEOJPGPH@countCoplanar?5?$DM?$DN?5triCount?$AA@ 00452df4     geometry.obj
 0002:00002e10       ??_C@_0BI@PKDBKABN@countMinMax?5?$DM?$DN?5triCount?$AA@ 00452e10     geometry.obj
 0002:00002e28       ??_C@_0CA@KPLOKMJN@?$CFs?6?7?$CIgeoGlob?4bspLeafCount?$CJ?5?$DN?5?$CFi?$AA@ 00452e28     geometry.obj
 0002:00002e48       ??_C@_0DB@PKICMDGN@?$CIgeoGlob?4bspLeafCount?5?$DM?5?$CI?$CI?$CI32?5?$CK?5@ 00452e48     geometry.obj
 0002:00002e80       ??_C@_0IG@IJMIODPG@Ran?5out?5of?5triangle?5refs?4?6This?5c@ 00452e80     geometry.obj
 0002:00002f08       ??_C@_08IDLHHEHL@triCount?$AA@ 00452f08     geometry.obj
 0002:00002f14       ??_C@_07OAKICGFB@triRefs?$AA@ 00452f14     geometry.obj
 0002:00002f1c       ??_C@_0DA@PKPJBFKK@Couldn?8t?5allocate?5?$CFi?5bytes?5for?5t@ 00452f1c     geometry.obj
 0002:00002f4c       ??_C@_0CO@LMKJPBBI@Couldn?8t?5allocate?5?$CFi?5bytes?5for?5t@ 00452f4c     geometry.obj
 0002:00002f7c       ??_C@_07NGDLNEE@bspNode?$AA@ 00452f7c     geometry.obj
 0002:00002f84       ??_C@_05MPELMBHH@dnode?$AA@ 00452f84     geometry.obj
 0002:00002f8c       ??_C@_0BB@OPEGAFMP@geoGlob?4bspNodes?$AA@ 00452f8c     geometry.obj
 0002:00002fa0       ??_C@_0EM@EPNHFPPL@tBase?5?$CL?5sCount?5?$DO?$DN?50?5?$CG?$CG?5tBase?5?$CL?5s@ 00452fa0     geometry.obj
 0002:00002ff0       ??_C@_0EL@CKFJHIGP@sBase?5?$CL?5sCount?5?$DO?$DN?50?5?$CG?$CG?5sBase?5?$CL?5s@ 00452ff0     geometry.obj
 0002:0000303c       ??_C@_05KHPFCEDO@?$CFi?5?$CFi?$AA@ 0045303c     geometry.obj
 0002:00003044       ??_C@_0BB@NCEMBHKA@?$CFs?6?7?$CItBase?$CJ?5?$DN?5?$CFi?$AA@ 00453044     geometry.obj
 0002:00003058       ??_C@_0EH@LNBJDAAE@?$CItBase?5?$DO?$DN?50?5?$CG?$CG?5tBase?5?$DM?5?$CI?$CI1024?5?$DO?5@ 00453058     geometry.obj
 0002:000030a0       ??_C@_0BB@KGNEPOCP@?$CFs?6?7?$CIsBase?$CJ?5?$DN?5?$CFi?$AA@ 004530a0     geometry.obj
 0002:000030b8       ??_C@_0EH@LILBOEHB@?$CIsBase?5?$DO?$DN?50?5?$CG?$CG?5sBase?5?$DM?5?$CI?$CI1024?5?$DO?5@ 004530b8     geometry.obj
 0002:00003100       ??_C@_0EB@LBDAMBJL@mins?$FL1?$FN?5?$DO?$DN?50?5?$CG?$CG?5maxs?$FL1?$FN?5?$DM?$DN?5LMAP_@ 00453100     geometry.obj
 0002:00003144       ??_C@_06HPIMLAMA@?$CFs?6?7?$CFs?$AA@ 00453144     geometry.obj
 0002:00003150       ??_C@_0EA@IAIOAPF@mins?$FL0?$FN?5?$DO?$DN?50?5?$CG?$CG?5maxs?$FL0?$FN?5?$DM?$DN?5LMAP_@ 00453150     geometry.obj
 0002:00003190       ??_C@_05IGEGLHNB@?$CFg?5?$CFg?$AA@ 00453190     geometry.obj
 0002:00003198       __real@44000000            00453198     geometry.obj
 0002:000031a0       __real@3f70101020000000    004531a0     geometry.obj
 0002:000031a8       ??_C@_0BC@IDNAFEIN@mskMtl?9?$DOcolorMask?$AA@ 004531a8     geometry.obj
 0002:000031bc       ??_C@_0BK@FCGKNKAC@?$CFs?6?7?$CIsample?9?$DOareaX2?$CJ?5?$DN?5?$CFg?$AA@ 004531bc     geometry.obj
 0002:000031d8       ??_C@_0BI@JFEOEGMF@?$CIsample?9?$DOareaX2?5?$DO?50?40f?$CJ?$AA@ 004531d8     geometry.obj
 0002:000031f0       ??_C@_0EL@BDOAMOIN@?$CBIS_NAN?$CI?$CIbasis?$FL2?$FN?$CJ?$FL0?$FN?$CJ?5?$CG?$CG?5?$CBIS_NA@ 004531f0     geometry.obj
 0002:00003240       ??_C@_0EL@HEOMKPOE@?$CBIS_NAN?$CI?$CIbasis?$FL1?$FN?$CJ?$FL0?$FN?$CJ?5?$CG?$CG?5?$CBIS_NA@ 00453240     geometry.obj
 0002:00003290       ??_C@_0EL@FGBHHAMD@?$CBIS_NAN?$CI?$CIbasis?$FL0?$FN?$CJ?$FL0?$FN?$CJ?5?$CG?$CG?5?$CBIS_NA@ 00453290     geometry.obj
 0002:000032dc       ??_C@_0BF@CCEKJMNI@?$CBIS_NAN?$CIcentroid?$FL1?$FN?$CJ?$AA@ 004532dc     geometry.obj
 0002:000032f4       ??_C@_0BF@JKPGPLLN@?$CBIS_NAN?$CIcentroid?$FL0?$FN?$CJ?$AA@ 004532f4     geometry.obj
 0002:0000330c       ??_C@_08BPIOMALF@userData?$AA@ 0045330c     geometry.obj
 0002:00003318       ??_C@_0BC@NAGKJKMO@?$CFs?6?7?$CIareaX2?$CJ?5?$DN?5?$CFg?$AA@ 00453318     geometry.obj
 0002:0000332c       ??_C@_0N@BAAEDKPP@?$CIareaX2?5?$DO?50?$CJ?$AA@ 0045332c     geometry.obj
 0002:0000333c       ??_C@_0BC@OBFOLDL@bestTriIndex?5?$DO?$DN?50?$AA@ 0045333c     geometry.obj
 0002:00003350       __real@3dcccccd            00453350     geometry.obj
 0002:00003354       ??_C@_01NOFIACDB@w?$AA@    00453354     geometry.obj
 0002:00003358       ??_C@_05FLKELOMH@node1?$AA@ 00453358     geometry.obj
 0002:00003360       ??_C@_05ECLPIPIG@node0?$AA@ 00453360     geometry.obj
 0002:00003368       ??_C@_0HN@NGLGACAC@Vec3Dot?$CI?5geoGlob?4worldSpaceXyz?$FLt@ 00453368     geometry.obj
 0002:000033e8       __real@3f50624de0000000    004533e8     geometry.obj
 0002:000033f0       ??_C@_0DA@KFGGPJKJ@DoesTriangleIntersectBox?$CI?5node?9?$DO@ 004533f0     geometry.obj
 0002:00003420       ??_C@_04CLMONKIF@node?$AA@ 00453420     geometry.obj
 0002:00003428       __real@c2000000            00453428     geometry.obj
 0002:0000342c       __real@c1800000            0045342c     geometry.obj
 0002:00003430       __real@42000000            00453430     geometry.obj
 0002:00003434       __real@41800000            00453434     geometry.obj
 0002:00003438       ??_C@_0CG@EIIAHLEA@building?5collision?5took?5?$CF?41f?5sec@ 00453438     geometry.obj
 0002:00003460       ??_C@_0DD@NKLKENKE@Couldn?8t?5allocate?5?$CFi?5bytes?5for?5i@ 00453460     geometry.obj
 0002:00003494       ??_C@_0DD@DGOLFPHF@Couldn?8t?5allocate?5?$CFi?5bytes?5for?5i@ 00453494     geometry.obj
 0002:000034c8       ??_C@_0BE@EFFOIJOI@?$CFs?6?7?$CInumnodes?$CJ?5?$DN?5?$CFi?$AA@ 004534c8     geometry.obj
 0002:000034dc       ??_C@_0CA@MHOLMLKO@?$CI?$CI?$CI32?5?$CK?51024?$CJ?5?$CK?58?$CJ?5?$DO?$DN?5numnodes?$CJ?$AA@ 004534dc     geometry.obj
 0002:000034fc       ??_C@_0BM@FEGNGPAK@building?5collision?5data?4?4?4?6?$AA@ 004534fc     geometry.obj
 0002:00003518       ??_C@_0DA@EIKDFEIP@lastHit?9?$DOgeoType?5?$DN?$DN?5TRACE_HIT_WO@ 00453518     geometry.obj
 0002:00003548       __real@3f000000            00453548     geometry.obj
 0002:0000354c       ??_C@_0CI@KLCDNIDJ@ERROR?3?5image?5?8?$CFs?8?5is?5not?5a?5PC?5IW@ 0045354c     gfx_imports.obj
 0002:00003574       ??_C@_0DK@LFHIKNPG@ERROR?3?5image?5?8?$CFs?8?5is?5version?5?$CFi?5@ 00453574     gfx_imports.obj
 0002:000035b0       ??_C@_0DA@BJAPAMEH@c?3?2cod?2cod5?2cod?2codsrc?2src?2unive@ 004535b0     groundlight.obj
 0002:000035e0       ??_C@_0BF@NEKGPIGK@?$CF02x?$CF02x?$CF02x?$CF02x?$CF02x?$AA@ 004535e0     groundlight.obj
 0002:000035f8       ??_C@_0CC@EHFIBDEM@Out?5of?5memory?5on?5ground?5lit?5mode@ 004535f8     groundlight.obj
 0002:0000361c       ??_C@_0BC@NAGNFBCA@?4?2groundlight?4cpp?$AA@ 0045361c     groundlight.obj
 0002:00003630       ??_C@_0BD@CAEMBEOL@totalWeight?5?$DO?50?40f?$AA@ 00453630     groundlight.obj
 0002:00003648       __real@4010000000000000    00453648     groundlight.obj
 0002:00003720       __real@401921fb60000000    00453720     harmonics.obj
 0002:00003728       __real@406fe00000000000    00453728     harmonics.obj
 0002:00003730       __real@3fa0000000000000    00453730     harmonics.obj
 0002:00003738       __real@4040000000000000    00453738     harmonics.obj
 0002:00003740       ??_C@_0DO@KDOOBCEG@Ignoring?5grid?5logfile?5?8?$CFs?8?3?5size@ 00453740     lightgrid.obj
 0002:00003780       ??_C@_0CL@JAEONFCI@?$CFs?5?$CFi?5grid?5points?5from?5grid?5logf@ 00453780     lightgrid.obj
 0002:000037ac       ??_C@_0CO@BBBOEGAI@Light?5grid?5sample?5point?5file?5?8?$CFs@ 004537ac     lightgrid.obj
 0002:000037dc       ??_C@_0BH@JMMCNDFG@Error?5while?5reading?5?$CFs?$AA@ 004537dc     lightgrid.obj
 0002:000037f4       ??_C@_0CN@DMPODFCD@couldn?8t?5allocate?5?$CF?42f?5MB?5for?5th@ 004537f4     lightgrid.obj
 0002:00003828       __real@3ed8000000000000    00453828     lightgrid.obj
 0002:00003830       __real@3ee8000000000000    00453830     lightgrid.obj
 0002:00003838       ??_C@_05ICNHPOME@Using?$AA@ 00453838     lightgrid.obj
 0002:00003840       ??_C@_0L@KJFHMOGL@?4grid_auto?$AA@ 00453840     lightgrid.obj
 0002:0000384c       ??_C@_0BO@CMDJAIFD@lightGridGlob?4pointCount?5?$DN?$DN?50?$AA@ 0045384c     lightgrid.obj
 0002:0000386c       ??_C@_0BA@PODEILNE@?4?2lightgrid?4cpp?$AA@ 0045386c     lightgrid.obj
 0002:0000387c       ??_C@_0BN@JECGPGGD@lightGridGlob?4points?5?$DN?$DN?5NULL?$AA@ 0045387c     lightgrid.obj
 0002:0000389c       ??_C@_0DF@DEIAAEHN@Out?5of?5memory?5on?5?$CFi?5bytes?5for?5a?5@ 0045389c     lightgrid.obj
 0002:000038d4       ??_C@_05NPCIKHFM@?4grid?$AA@ 004538d4     lightgrid.obj
 0002:000038e0       ??_C@_0ED@JFNGODEH@Ignoring?5vis?5cache?5logfile?5?8?$CFs?8?3@ 004538e0     lightgrid.obj
 0002:00003924       ??_C@_0DD@CLKGAPEI@Using?5?$CFi?5grid?5points?5from?5vis?5ca@ 00453924     lightgrid.obj
 0002:00003958       ??_C@_0BG@LBLIDFLP@?$CBlightGridGlob?4points?$AA@ 00453958     lightgrid.obj
 0002:00003970       ??_C@_0EE@DCCHGPEI@Vis?5cache?5logfile?5?8?$CFs?8?5not?5found@ 00453970     lightgrid.obj
 0002:000039b4       ??_C@_06OGDPLIMH@?4vclog?$AA@ 004539b4     lightgrid.obj
 0002:000039bc       ??_C@_0CE@ELLDLMKD@?$CFs?6?7?$CIlightGridGlob?4pointCount?$CJ?5?$DN@ 004539bc     lightgrid.obj
 0002:000039e0       ??_C@_0CA@BPKNLGDG@?$CIlightGridGlob?4pointCount?5?$DN?$DN?50?$CJ?$AA@ 004539e0     lightgrid.obj
 0002:00003a00       ??_C@_0DE@GDFIGBKL@lightGridGlob?4pointCount?5?$DM?$DN?5ligh@ 00453a00     lightgrid.obj
 0002:00003a38       __real@3f90000000000000    00453a38     lightgrid.obj
 0002:00003a40       __real@c100000000000000    00453a40     lightgrid.obj
 0002:00003a48       ??_C@_0BJ@JDMDJFMB@lightGridGlob?4pointCount?$AA@ 00453a48     lightgrid.obj
 0002:00003a64       __real@be000000            00453a64     lightgrid.obj
 0002:00003a68       __real@3e000000            00453a68     lightgrid.obj
 0002:00003a6c       ??_C@_0CA@JIMMCPBO@unexpected?5end?9of?9file?5in?5?8?$CFs?8?6?$AA@ 00453a6c     lightgrid.obj
 0002:00003a90       ??_C@_0GN@DEOOFLAO@suppressPoint?5?$DO?$DN?5?$CGlightGridGlob?4@ 00453a90     lightgrid.obj
 0002:00003b00       ??_C@_09CEGJFFFF@Excluding?$AA@ 00453b00     lightgrid.obj
 0002:00003b0c       ??_C@_09HPLPHCNF@?4grid_not?$AA@ 00453b0c     lightgrid.obj
 0002:00003b18       ??_C@_0BA@LEDJEHDN@pointIndex?5?$DN?$DN?50?$AA@ 00453b18     lightgrid.obj
 0002:00003b28       ??_C@_0BP@PMCDAIHM@endPoint?5?$DN?$DN?5beginPoint?6?7?$CFi?0?5?$CFi?$AA@ 00453b28     lightgrid.obj
 0002:00003b48       ??_C@_0IF@FCGOJFDF@Needed?5to?5insert?5too?5many?5points@ 00453b48     lightgrid.obj
 0002:00003bd0       ??_C@_0L@PLENBPLG@needsTrace?$AA@ 00453bd0     lightgrid.obj
 0002:00003bdc       ??_C@_0BH@IIDPDEGD@?$CFs?6?7?$CIlight?9?$DOtype?$CJ?5?$DN?5?$CFi?$AA@ 00453bdc     lightgrid.obj
 0002:00003bf8       ??_C@_0EL@KIOLMD@?$CIlight?9?$DOtype?5?$DN?$DN?5GFX_LIGHT_TYPE_O@ 00453bf8     lightgrid.obj
 0002:00003c44       ??_C@_0DB@CHADFCJM@Couldn?8t?5allocate?5sky?5lighting?5l@ 00453c44     lightgrid.obj
 0002:00003c78       ??_C@_0CJ@IIKJOEO@basisIndex?5?$DN?$DN?5GFX_LIGHTGRID_SAMP@ 00453c78     lightgrid.obj
 0002:00003ca8       __real@3fe5555560000000    00453ca8     lightgrid.obj
 0002:00003cb0       __real@3f00000000000000    00453cb0     lightgrid.obj
 0002:00003cb8       ??_C@_0DF@NJPGIBEO@Couldn?8t?5allocate?5?$CFi?5bytes?5for?5g@ 00453cb8     lightgrid.obj
 0002:00003cf0       ??_C@_0P@NEPOGKJF@cluster?9?$DOcount?$AA@ 00453cf0     lightgrid.obj
 0002:00003d00       ??_C@_07NKHKICEG@cluster?$AA@ 00453d00     lightgrid.obj
 0002:00003d08       __real@ff7fffff            00453d08     lightgrid.obj
 0002:00003d0c       ??_C@_0CI@NFMNNOJJ@head?5?$CB?$DN?5cluster?9?$DOfirst?5?$CL?5cluster@ 00453d0c     lightgrid.obj
 0002:00003d34       ??_C@_09LFEOIMNI@head?5?$CB?$DN?50?$AA@ 00453d34     lightgrid.obj
 0002:00003d40       ??_C@_0BB@IDOGBDCM@head?5?$DN?$DN?5tail?5?$CL?51?$AA@ 00453d40     lightgrid.obj
 0002:00003d54       ??_C@_0M@CEMCAMNB@head?5?$DM?5tail?$AA@ 00453d54     lightgrid.obj
 0002:00003d60       ??_C@_0BK@DHMOLICI@?$CFs?6?7?$CIcluster?9?$DOcount?$CJ?5?$DN?5?$CFi?$AA@ 00453d60     lightgrid.obj
 0002:00003d7c       ??_C@_0BG@MBAGPGJB@?$CIcluster?9?$DOcount?5?$DO?$DN?52?$CJ?$AA@ 00453d7c     lightgrid.obj
 0002:00003d94       ??_C@_0BK@MEMEIJDN@Improving?5quantization?4?4?4?$AA@ 00453d94     lightgrid.obj
 0002:00003db0       ??_C@_0DH@EPAIFPLL@Couldn?8t?5allocate?5?$CFi?5bytes?5for?5l@ 00453db0     lightgrid.obj
 0002:00003de8       ??_C@_0DF@EFEOEGBK@Couldn?8t?5allocate?5?$CFi?5bytes?5for?5l@ 00453de8     lightgrid.obj
 0002:00003e20       ??_C@_0DB@CDBBGGNN@Couldn?8t?5allocate?5?$CFi?5bytes?5for?5l@ 00453e20     lightgrid.obj
 0002:00003e54       ??_C@_0DI@KGFPBGF@Couldn?8t?5allocate?5?$CFi?5bytes?5for?5l@ 00453e54     lightgrid.obj
 0002:00003e8c       ??_C@_0DI@MBFPFBOE@lightGridRowDataUsed?5?$CL?52?5?$DM?5MAX_M@ 00453e8c     lightgrid.obj
 0002:00003ec4       ??_C@_0CP@BKJPFKEB@lightGridEntryCount?5?$DM?5MAX_MAP_LI@ 00453ec4     lightgrid.obj
 0002:00003ef4       ??_C@_0DI@PHKNMBBH@lightGridRowDataUsed?5?$CL?53?5?$DM?5MAX_M@ 00453ef4     lightgrid.obj
 0002:00003f2c       ??_C@_0BH@NGBKDCFB@pointIndex?5?$DN?$DN?5endBlock?$AA@ 00453f2c     lightgrid.obj
 0002:00003f48       ??_C@_0IL@LLGOLAID@lightGridGlob?4points?$FLpointIndex?$FN@ 00453f48     lightgrid.obj
 0002:00003fd4       ??_C@_0DD@KHIOFIME@runCount?5?$CK?5height?5?$DO?$DN?5endBlock?5?9?5@ 00453fd4     lightgrid.obj
 0002:00004008       ??_C@_0CN@FPFKGHPF@light?5grid?5vertical?5variation?5is@ 00454008     lightgrid.obj
 0002:00004038       ??_C@_0DI@JAOKNBNA@lightGridEntryCount?5?$DO?$DN?5lightGrid@ 00454038     lightgrid.obj
 0002:00004070       ??_C@_0DP@JAMPEJHO@lightGridHeader?4rowDataStart?$FLrow@ 00454070     lightgrid.obj
 0002:000040b0       ??_C@_0GC@IGIFOLOF@static_cast?$DM?5uint?5?$DO?$CI?5lightGridHe@ 004540b0     lightgrid.obj
 0002:00004114       ??_C@_0BJ@OOPFDENF@lightGridEntryCount?5?$DN?$DN?50?$AA@ 00454114     lightgrid.obj
 0002:00004130       __real@4020000000000000    00454130     lightgrid.obj
 0002:00004138       __real@4030000000000000    00454138     lightgrid.obj
 0002:00004140       ??_C@_0GI@OAKGEPI@options?4sunPrimaryLightIndex?5?$DN?$DN?5@ 00454140     lightgrid.obj
 0002:000041f0       ??_C@_0EB@OLOHNBBC@?9?9?9?9?9?9?9?9?9?9?9?9?9?9?9?9?9?9?9?9?9?9?9?9?9?9?9?9?9?9?9?9@ 004541f0     lightgrid.obj
 0002:00004238       ??_C@_0EK@CHDBMGEB@?9?9?9?9?9?9?9?9?9?9?9?9?9?9?9?9?9?9?9?9?9?9?9?9?9?9?9?9?9?9?9?9@ 00454238     lightgrid.obj
 0002:00004284       ??_C@_0BK@OLIIPIFM@Calculating?5light?5grid?4?4?4?$AA@ 00454284     lightgrid.obj
 0002:000042a0       ??_C@_0DF@DCNAKOLM@Couldn?8t?5allocate?5?$CFi?5bytes?5to?5ho@ 004542a0     lightgrid.obj
 0002:000042d8       ??_C@_0CF@GECONGIM@light?5grid?5extends?5past?5world?5bo@ 004542d8     lightgrid.obj
 0002:00004300       ??_C@_0DL@PNBGMHIG@lightGridHeader?4mins?$FL2?$FN?5?$DM?$DN?5light@ 00454300     lightgrid.obj
 0002:0000433c       ??_C@_0DL@CJBMKBOA@lightGridHeader?4mins?$FL1?$FN?5?$DM?$DN?5light@ 0045433c     lightgrid.obj
 0002:00004378       ??_C@_0DL@GFBKIDMC@lightGridHeader?4mins?$FL0?$FN?5?$DM?$DN?5light@ 00454378     lightgrid.obj
 0002:000043b4       ??_C@_0DH@JKIHBEDD@Need?5?$CFi?5light?5grid?5sample?5points@ 004543b4     lightgrid.obj
 0002:000043fc       ??_7bad_alloc@std@@6B@     004543fc     lighting.obj
 0002:00004408       __real@3f90101020000000    00454408     lighting.obj
 0002:00004410       ??_C@_0BO@JDPMANKK@lightingGlob?4lmapDefs?5?$DN?$DN?5NULL?$AA@ 00454410     lighting.obj
 0002:00004430       ??_C@_0P@FKDGILHN@?4?2lighting?4cpp?$AA@ 00454430     lighting.obj
 0002:00004440       ??_C@_0BL@BLEOFBEN@lmapIndex?5?$CB?$DN?5LIGHTMAP_NONE?$AA@ 00454440     lighting.obj
 0002:0000445c       ??_C@_0DL@HBLACDHI@Couldn?8t?5allocate?5?$CFg?5MB?5for?5ligh@ 0045445c     lighting.obj
 0002:00004498       __real@4018000000000000    00454498     lighting.obj
 0002:000044a0       ??_C@_0CC@HIBHOEJB@?$CFs?6?7?$CIlightingGlob?4lmapCount?$CJ?5?$DN?5?$CF@ 004544a0     lighting.obj
 0002:000044c4       ??_C@_0BO@BLKJLONA@?$CIlightingGlob?4lmapCount?5?$DO?$DN?50?$CJ?$AA@ 004544c4     lighting.obj
 0002:000044e8       ??_C@_0EC@PIBHIFBN@lmapIndex?5doesn?8t?5index?5lighting@ 004544e8     lighting.obj
 0002:0000452c       ??_C@_0DO@KDEDPGCF@s?5?$DO?$DN?50?5?$CG?$CG?5s?5?$DM?5LMAP_WIDTH_MAX?5?$CG?$CG?5@ 0045452c     lighting.obj
 0002:0000456c       ??_C@_0L@GFAGAGNI@?$CFi?3?5?$CFg?5?$CFg?6?$AA@ 0045456c     lighting.obj
 0002:00004578       ??_C@_0DN@DOOOKNAH@lmapIndex?5doesn?8t?5index?5MAX_MAP_@ 00454578     lighting.obj
 0002:000045b8       ??_C@_0BF@PNEMJLAD@sample?9?$DOvars?5?$DN?$DN?5NULL?$AA@ 004545b8     lighting.obj
 0002:000045d0       ??_C@_0EL@BBIJCAPG@Couldn?8t?5allocate?5?$CF?42g?5MB?5for?5sk@ 004545d0     lighting.obj
 0002:0000461c       ??_C@_0DJ@GNFLDJEI@Couldn?8t?5allocate?5?$CF?42g?5MB?5for?5?$CFi@ 0045461c     lighting.obj
 0002:00004658       __real@3eb0000000000000    00454658     lighting.obj
 0002:00004660       ??_C@_0EI@MHBCCHBG@lightingGlob?4usefulSampleCount?5?$DM@ 00454660     lighting.obj
 0002:000046a8       ??_C@_0CE@NJHBMKCL@lightingGlob?4usefulSampleCount?5?$DN@ 004546a8     lighting.obj
 0002:000046cc       ??_C@_0CD@OMFKGALA@lightingGlob?4totalSampleCount?5?$DN?$DN@ 004546cc     lighting.obj
 0002:000046f0       __real@3fefae1480000000    004546f0     lighting.obj
 0002:000046f8       __real@bfe59d9de0000000    004546f8     lighting.obj
 0002:00004700       __real@3fe59d9de0000000    00454700     lighting.obj
 0002:00004708       __real@bfe79886a0000000    00454708     lighting.obj
 0002:00004710       ??_C@_0DG@DCLHDGME@Out?5of?5memory?5allocating?5?$CFi?5ligh@ 00454710     lighting.obj
 0002:00004748       ??_C@_0GG@KLJJKHKL@options?4basisDirCount?5not?5in?5?$FLLI@ 00454748     lighting.obj
 0002:000047b0       ??_C@_0BB@LADDPOGK@?$CFs?6?7?$CIcolor?$CJ?5?$DN?5?$CFg?$AA@ 004547b0     lighting.obj
 0002:000047c4       ??_C@_0N@ELABDHLG@?$CIcolor?5?$DO?$DN?50?$CJ?$AA@ 004547c4     lighting.obj
 0002:000047d4       ??_C@_0BE@LMEFLGNH@?$CIcolor?5?$DO?$DN?5?91?40e?94f?$CJ?$AA@ 004547d4     lighting.obj
 0002:000047e8       __real@bf1a36e2e0000000    004547e8     lighting.obj
 0002:000047f0       __real@3f50101020000000    004547f0     lighting.obj
 0002:000047f8       ??_C@_0BB@CGNJDKHH@contrast?5?$DO?$DN?50?40f?$AA@ 004547f8     lighting.obj
 0002:0000480c       ??_C@_0N@MEHMOODC@?$CFg?3?5?$CFg?5?$DM?$DN?5?$CFg?$AA@ 0045480c     lighting.obj
 0002:00004820       __real@3fbd2f1aa0000000    00454820     lighting.obj
 0002:00004828       __real@3fe2c8b440000000    00454828     lighting.obj
 0002:00004830       __real@3fd322d0e0000000    00454830     lighting.obj
 0002:00004838       ??_C@_06ENIPCAGE@colors?$AA@ 00454838     lighting.obj
 0002:00004840       ??_C@_0BF@HJLOBNLE@?$CFs?6?7?$CIbaseIndex?$CJ?5?$DN?5?$CFi?$AA@ 00454840     lighting.obj
 0002:00004858       ??_C@_0ED@GINLDHE@?$CI?$CIbaseIndex?5?$DO?$DN?50?5?$CG?$CG?5baseIndex?5?$DM?5@ 00454858     lighting.obj
 0002:0000489c       ??_C@_0BH@ICNDIBLI@?$CFs?6?7?$CIsampleCount?$CJ?5?$DN?5?$CFi?$AA@ 0045489c     lighting.obj
 0002:000048b8       ??_C@_0JB@LHKGEBIN@?$CIsampleCount?5?$DO?50?5?$CG?$CG?5sampleCount?5@ 004548b8     lighting.obj
 0002:0000494c       ??_C@_0DH@OLMPPGBN@lmapT?5doesn?8t?5index?5LMAP_HEIGHT_@ 0045494c     lighting.obj
 0002:00004984       ??_C@_0DG@OEKEPFBL@lmapS?5doesn?8t?5index?5LMAP_WIDTH_M@ 00454984     lighting.obj
 0002:000049bc       ??_C@_09CGGMCHGL@?4radtrans?$AA@ 004549bc     lighting.obj
 0002:000049c8       ??_C@_0CD@IMIOMBND@Out?5of?5memory?5loading?5relight?5fi@ 004549c8     lighting.obj
 0002:000049f0       ??_C@_0GB@NKGPKHPL@?9?9?9?9?9?9?9?9?9?9?9?9?9?9?9?9?9?9?9?9?9?9?9?9?9?9?9?9?9?9?9?9@ 004549f0     lighting.obj
 0002:00004a54       ??_C@_0DB@GMNAKDML@Out?5of?5memory?5for?5?$CFi?5suppressed?5@ 00454a54     lighting.obj
 0002:00004a88       ??_C@_0DD@OMEDOLI@prevSuppressed?9?$DOkey?5?$CL?5prevSuppre@ 00454a88     lighting.obj
 0002:00004ac0       ??_C@_0CO@DOBEGJNA@t?5doesn?8t?5index?5lmapHeight?6?7?$CFi?5n@ 00454ac0     lightmap_bleed.obj
 0002:00004af0       ??_C@_0BF@ELDLFDNN@?4?2lightmap_bleed?4cpp?$AA@ 00454af0     lightmap_bleed.obj
 0002:00004b08       ??_C@_0CN@BJIPIOAJ@s?5doesn?8t?5index?5lmapWidth?6?7?$CFi?5no@ 00454b08     lightmap_bleed.obj
 0002:00004b38       ??_C@_0EB@NJCJEDEN@Out?5of?5memory?5trying?5to?5allocate@ 00454b38     lightmap_bleed.obj
 0002:00004bac       ??_C@_0CD@HMLEGJKN@?4?4?2src?2universal?2linearmapping?4c@ 00454bac     linearmapping.obj
 0002:00004bd0       ??_C@_0FB@OFOMPBJD@?$CBIS_NAN?$CI?$CIvec?$CJ?$FL0?$FN?$CJ?5?$CG?$CG?5?$CBIS_NAN?$CI?$CIve@ 00454bd0     linearmapping.obj
 0002:00004c24       ??_C@_06HDCCAAL@solver?$AA@ 00454c24     linearmapping.obj
 0002:00004c2c       ??_C@_0M@PPPJJLF@?4?2mapio?4cpp?$AA@ 00454c2c     mapio.obj
 0002:00004c38       ??_C@_03NLFJHNAK@ent?$AA@  00454c38     mapio.obj
 0002:00004c3c       ??_C@_0CP@HPJAJLKE@key?5?8?$CFs?8?5has?5value?5?8?$CFs?8?5which?5is@ 00454c3c     mapio.obj
 0002:00004c6c       ??_C@_0P@FNGGJLCN@?$CI?5?$CFg?0?5?$CFg?0?5?$CFg?5?$CJ?$AA@ 00454c6c     mapio.obj
 0002:00004c7c       ??_C@_0N@GMDGOJII@?$CI?5?$CFg?5?$CFg?5?$CFg?5?$CJ?$AA@ 00454c7c     mapio.obj
 0002:00004c8c       ??_C@_0L@PFHGFMOH@?$CFg?0?5?$CFg?0?5?$CFg?$AA@ 00454c8c     mapio.obj
 0002:00004c98       ??_C@_08MHIFFAO@?$CFg?5?$CFg?5?$CFg?$AA@ 00454c98     mapio.obj
 0002:00004ca4       ??_C@_06GNEAMJOC@angles?$AA@ 00454ca4     mapio.obj
 0002:00004cac       ??_C@_0BN@NKCJIDHE@ignoring?5bad?5model?5index?5?$CFi?6?$AA@ 00454cac     mapio.obj
 0002:00004ccc       ??_C@_0BD@DDEKHPGK@?6using?5map?5?$CFs?5?$CFg?6?6?$AA@ 00454ccc     mapio.obj
 0002:00004ce0       ??_C@_0BP@FLONNFBP@map?5?$CFs?5clamped?5from?5?$CFg?5to?5?$CFg?6?6?$AA@ 00454ce0     mapio.obj
 0002:00004d00       ??_C@_0BH@NGNHAM@?6using?5default?5?$CFs?5?$CFg?6?6?$AA@ 00454d00     mapio.obj
 0002:00004d18       ??_C@_0BM@KCPCMCIC@?6using?5command?5line?5?$CFs?5?$CFg?6?6?$AA@ 00454d18     mapio.obj
 0002:00004d34       ??_C@_0N@CKCAMNPB@sundirection?$AA@ 00454d34     mapio.obj
 0002:00004d48       ??_C@_0EG@IPEJPHCK@WARNING?3?5increasing?5sunradiosity@ 00454d48     mapio.obj
 0002:00004d90       ??_C@_0EC@LICFDFHF@WARNING?3?5increasing?5sunlight?5?$CFg?5@ 00454d90     mapio.obj
 0002:00004dd4       ??_C@_0DK@HPBIBIAO@WARNING?3?5clamping?5diffuseFractio@ 00454dd4     mapio.obj
 0002:00004e10       ??_C@_0EJ@CIMJNKPG@WARNING?3?5ambient?5?$CFg?5?$DO?5sunlight?5?$CF@ 00454e10     mapio.obj
 0002:00004e5c       ??_C@_06NHOPLGF@_color?$AA@ 00454e5c     mapio.obj
 0002:00004e64       ??_C@_07LIABELBC@ambient?$AA@ 00454e64     mapio.obj
 0002:00004e6c       ??_C@_0BA@HDELPCMD@sundiffusecolor?$AA@ 00454e6c     mapio.obj
 0002:00004e7c       ??_C@_0BA@GMLCILMM@diffusefraction?$AA@ 00454e7c     mapio.obj
 0002:00004e8c       ??_C@_08FFJBPOLH@suncolor?$AA@ 00454e8c     mapio.obj
 0002:00004e98       ??_C@_0N@BGCOBIPC@sunradiosity?$AA@ 00454e98     mapio.obj
 0002:00004ea8       ??_C@_08KPJDIPMA@sunlight?$AA@ 00454ea8     mapio.obj
 0002:00004eb4       ??_C@_0N@LOGCAIOG@contrastGain?$AA@ 00454eb4     mapio.obj
 0002:00004ec4       ??_C@_0P@BNLIDECH@radiosityScale?$AA@ 00454ec4     mapio.obj
 0002:00004ed4       ??_C@_0CC@MGMBJBHA@Entity?5?$CFi?5has?5bad?5brush?5model?5?$CFs@ 00454ed4     mapio.obj
 0002:00004ef8       ??_C@_0DA@BHPGAHMD@Out?5of?5memory?5allocating?5?$CFi?5byte@ 00454ef8     mapio.obj
 0002:00004f28       ??_C@_0L@HDLPNNAF@modelscale?$AA@ 00454f28     mapio.obj
 0002:00004f34       ??_C@_0CA@HACKNIEI@failed?5to?5load?5misc_model?5?8?$CFs?8?6?$AA@ 00454f34     mapio.obj
 0002:00004f54       ??_C@_07KAJJGBAO@shadow_?$AA@ 00454f54     mapio.obj
 0002:00004f5c       ??_C@_0L@HLIKNEFC@spawnflags?$AA@ 00454f5c     mapio.obj
 0002:00004f68       ??_C@_08EGJNFMPO@exponent?$AA@ 00454f68     mapio.obj
 0002:00004f78       ??_C@_0EI@GJCBKFDE@WARNING?3?5ignoring?5spotlight?5at?5?$CI@ 00454f78     mapio.obj
 0002:00004fc0       ??_C@_09HNOBKJLD@fov_inner?$AA@ 00454fc0     mapio.obj
 0002:00004fd0       __real@3f91df46a0000000    00454fd0     mapio.obj
 0002:00004fd8       __real@40b0000000000000    00454fd8     mapio.obj
 0002:00004fe0       ??_C@_09IDCMFLMG@fov_outer?$AA@ 00454fe0     mapio.obj
 0002:00004ff0       ??_C@_0EL@JJDNDOGC@WARNING?3?5ignoring?5light?5at?5?$CI?$CF?40f@ 00454ff0     mapio.obj
 0002:0000503c       ??_C@_0L@FEPNPAJD@targetname?$AA@ 0045503c     mapio.obj
 0002:00005048       ??_C@_06JJLAMBGK@target?$AA@ 00455048     mapio.obj
 0002:00005050       ??_C@_09DDBFFAKC@intensity?$AA@ 00455050     mapio.obj
 0002:0000505c       ??_C@_0DO@DGJDCLJA@WARNING?3?5ignoring?5light?5at?5?$CI?$CF?40f@ 0045505c     mapio.obj
 0002:0000509c       ??_C@_0DO@BOLGBKPF@WARNING?3?5ignoring?5light?5at?5?$CI?$CF?40f@ 0045509c     mapio.obj
 0002:000050dc       ??_C@_06KGHINEPG@radius?$AA@ 004550dc     mapio.obj
 0002:000050e4       ??_C@_0BD@GNCHPJBC@light_point_linear?$AA@ 004550e4     mapio.obj
 0002:000050f8       ??_C@_03BHEEIFFN@def?$AA@  004550f8     mapio.obj
 0002:000050fc       ??_C@_05OEPGNJB@light?$AA@ 004550fc     mapio.obj
 0002:00005104       ??_C@_0N@LCPJKHIK@script_model?$AA@ 00455104     mapio.obj
 0002:00005114       ??_C@_0L@BIFLFHPF@worldspawn?$AA@ 00455114     mapio.obj
 0002:00005120       ??_C@_0CJ@MECAMILG@WARNING?3?5entity?5is?5missing?5a?5cla@ 00455120     mapio.obj
 0002:0000514c       ??_C@_0DB@MPIEIIHN@WARNING?3?5entity?5at?5?$CI?$CFs?$CJ?5is?5missi@ 0045514c     mapio.obj
 0002:00005180       ??_C@_0BN@ENMEPFOL@couldn?8t?5load?5material?5?8?$CFs?8?6?$AA@ 00455180     mapio.obj
 0002:000051a0       ??_C@_08POLIGIOH@noshader?$AA@ 004551a0     mapio.obj
 0002:000051ac       ??_C@_0CO@ILFJNJJD@Couldn?8t?5allocate?5?$CFi?5bytes?5for?5a@ 004551ac     maskedmaterial.obj
 0002:000051dc       ??_C@_0BF@PEABONHO@?4?2maskedmaterial?4cpp?$AA@ 004551dc     maskedmaterial.obj
 0002:000051f4       ??_C@_09DHPFAECH@mtlLoaded?$AA@ 004551f4     maskedmaterial.obj
 0002:00005200       ??_C@_03FPOBIMCE@wc_?$AA@  00455200     materials.obj
 0002:00005204       ??_C@_02GMCDBJKD@w_?$AA@   00455204     materials.obj
 0002:00005208       ??_C@_03GAEFDLNP@mc_?$AA@  00455208     materials.obj
 0002:0000520c       ??_C@_02HNJCDPAF@m_?$AA@   0045520c     materials.obj
 0002:00005210       ??_C@_0BJ@OEOOFMMG@?4?4?2cod2map?2materials?4cpp?$AA@ 00455210     materials.obj
 0002:0000522c       ??_C@_09LLIJPEMC@endOfName?$AA@ 0045522c     materials.obj
 0002:00005238       ??_C@_0N@NPFPNDCJ@vertexShader?$AA@ 00455238     materials.obj
 0002:00005248       ??_C@_0M@EKEOPGKB@pixelShader?$AA@ 00455248     materials.obj
 0002:00005254       ??_C@_0BD@FMBKANBC@techniques?1?$CFs?4tech?$AA@ 00455254     materials.obj
 0002:00005268       ??_C@_08NLAIOAPE@zprepass?$AA@ 00455268     materials.obj
 0002:00005274       ??_C@_0N@LDPGEJMF@build?5floatz?$AA@ 00455274     materials.obj
 0002:00005284       ??_C@_0BB@COOJLDDL@?$CCdepth?5prepass?$CC?3?$AA@ 00455284     materials.obj
 0002:00005298       ??_C@_0M@DBNEKCEM@?$CCemissive?$CC?3?$AA@ 00455298     materials.obj
 0002:000052a4       ??_C@_06CLJIKJBF@?$CClit?$CC?3?$AA@ 004552a4     materials.obj
 0002:000052ac       ??_C@_0BJ@JIMCGIDO@?$CCbuild?5shadowmap?5depth?$CC?3?$AA@ 004552ac     materials.obj
 0002:000052c8       ??_C@_0BF@DFIANLKN@?$CBstrchr?$CI?5text?0?5?8?1?8?5?$CJ?$AA@ 004552c8     materials.obj
 0002:000052e0       ??_C@_0BG@DIIIGKDD@techsets?1?$CFs?$CFs?4techset?$AA@ 004552e0     materials.obj
 0002:000052f8       ??_C@_0BK@CAHEMJIE@Material?5?8?$CFs?8?5is?5corrupt?6?$AA@ 004552f8     materials.obj
 0002:00005314       ??_C@_0BP@EPKEKNFJ@Material?5?8$default?8?5is?5corrupt?$AA@ 00455314     materials.obj
 0002:00005334       ??_C@_0BK@EIEEIEIG@Material?5?8?$CFs?8?5is?5missing?6?$AA@ 00455334     materials.obj
 0002:00005350       ??_C@_0CA@PMNLDMPA@Cannot?5find?5material?5?8$default?8?$AA@ 00455350     materials.obj
 0002:00005370       ??_C@_0N@EMCHJOIF@materials?1?$CFs?$AA@ 00455370     materials.obj
 0002:00005380       ??_C@_08GHEEJJFP@$default?$AA@ 00455380     materials.obj
 0002:0000538c       ??_C@_0L@NKDAJMOJ@in1?5?$CB?$DN?5out?$AA@ 0045538c     modelcollision.obj
 0002:00005398       __real@c8000000            00455398     modelcollision.obj
 0002:000053a0       ??_C@_0EM@PPDCLHKC@treeNodes?$FLnodeIndex?$FN?4firstItem?5?$CL@ 004553a0     modelcollision.obj
 0002:000053ec       ??_C@_0BF@BDKEOOHF@?4?2modelcollision?4cpp?$AA@ 004553ec     modelcollision.obj
 0002:00005404       ??_C@_0CE@ICKBOMIM@treeNodes?$FLnodeIndex?$FN?4firstItem?5?$DO@ 00455404     modelcollision.obj
 0002:00005428       ??_C@_0DJ@MEIEMGML@Couldn?8t?5allocate?5?$CFi?5bytes?5for?5m@ 00455428     modelcollision.obj
 0002:00005468       ??_C@_0EJ@KDKOEFEB@Out?5of?5memory?5for?5model?5collisio@ 00455468     modelcollision.obj
 0002:000054b8       ??_C@_0ED@FPHPFHDC@Out?5of?5memory?5for?5model?5collisio@ 004554b8     modelcollision.obj
 0002:000054fc       ??_C@_0CN@LEBIFEG@surfCount?5?$DN?$DN?5XModelGetSurfCount?$CI@ 004554fc     modelcollision.obj
 0002:0000552c       ??_C@_0BB@MGMEEEHI@model?5name?3?5?8?$CFs?8?$AA@ 0045552c     modelcollision.obj
 0002:00005540       ??_C@_0DC@COENNMBF@Out?5of?5memory?5for?5model?5collisio@ 00455540     modelcollision.obj
 0002:00005574       ??_C@_0CH@HNIEJDEK@Out?5of?5memory?5on?5static?5model?5in@ 00455574     modelcollision.obj
 0002:0000559c       ??_C@_0CH@CIAEMNF@absBounds?$FL1?$FN?$FL2?$FN?5?9?5absBounds?$FL0?$FN?$FL2@ 0045559c     modelcollision.obj
 0002:000055c4       ??_C@_0CH@HOFIKGMO@absBounds?$FL1?$FN?$FL1?$FN?5?9?5absBounds?$FL0?$FN?$FL1@ 004555c4     modelcollision.obj
 0002:000055ec       ??_C@_0CH@FFOPAAMH@absBounds?$FL1?$FN?$FL0?$FN?5?9?5absBounds?$FL0?$FN?$FL0@ 004555ec     modelcollision.obj
 0002:00005614       ??_C@_0CJ@MBLBJNGH@end?$FLnode?9?$DOaxis?$FN?5?9?5start?$FLnode?9?$DOax@ 00455614     modelcollision.obj
 0002:00005640       __real@bff0000000000000    00455640     oldgrid.obj
 0002:00005648       ??_C@_0O@BNNCBLEN@out?5of?5memory?$AA@ 00455648     pointlights.obj
 0002:00005658       ??_C@_0EL@GAPGHAMG@Falloff?5image?5?$CFs?5in?5light?5def?5?$CFs@ 00455658     pointlights.obj
 0002:000056a4       ??_C@_0CI@GBMHAPFP@Couldn?8t?5get?5light?5def?5images?5fo@ 004556a4     pointlights.obj
 0002:000056d0       ??_C@_0EF@BLGLIOGL@More?5than?5?$CFi?5lightDefs?5used?5by?5a@ 004556d0     pointlights.obj
 0002:00005718       ??_C@_0BL@GFGKIEH@More?5than?5?$CFi?5lights?5in?5map?$AA@ 00455718     pointlights.obj
 0002:00005734       ??_C@_0L@KMLDHDLM@light?9?$DOdef?$AA@ 00455734     pointlights.obj
 0002:00005740       ??_C@_0BC@MOIPAIOH@?4?2pointlights?4cpp?$AA@ 00455740     pointlights.obj
 0002:00005754       ??_C@_0BG@CKPFKNBJ@?$CFs?6?7?$CIlightIndex?$CJ?5?$DN?5?$CFi?$AA@ 00455754     pointlights.obj
 0002:0000576c       ??_C@_0DM@DBMEDPKE@?$CIlightIndex?5?$DO?$DN?50?5?$CG?$CG?5lightIndex?5?$DM@ 0045576c     pointlights.obj
 0002:000057a8       ??_C@_0CI@BAKLNKDF@MAX_VERTS_PER_POLY?5exceeded?5on?52@ 004557a8     poly2d.obj
 0002:000057d0       ??_C@_0BK@JDCGDPII@coordsFront?5?$CB?$DN?5coordsBack?$AA@ 004557d0     poly2d.obj
 0002:000057ec       ??_C@_0BF@HMHKBJJH@coords?5?$CB?$DN?5coordsBack?$AA@ 004557ec     poly2d.obj
 0002:00005804       ??_C@_0BG@NFIIBCBL@coords?5?$CB?$DN?5coordsFront?$AA@ 00455804     poly2d.obj
 0002:0000581c       ??_C@_0N@HJNEPNOP@backCountOut?$AA@ 0045581c     poly2d.obj
 0002:0000582c       ??_C@_0L@IPHDHCIM@coordsBack?$AA@ 0045582c     poly2d.obj
 0002:00005838       ??_C@_0O@JDADOEJD@frontCountOut?$AA@ 00455838     poly2d.obj
 0002:00005848       ??_C@_0M@FPBONCJM@coordsFront?$AA@ 00455848     poly2d.obj
 0002:00005854       ??_C@_0BH@CDNCBLNA@axis?5?$DN?$DN?50?5?$HM?$HM?5axis?5?$DN?$DN?51?$AA@ 00455854     poly2d.obj
 0002:0000586c       ??_C@_0DC@FPNJHFPE@vertCount?5?$DO?$DN?53?5?$CG?$CG?5vertCount?5?$DM?$DN?5M@ 0045586c     poly2d.obj
 0002:000058a0       ??_C@_0BF@DBPEGIEN@?4?4?2common?2poly2d?4cpp?$AA@ 004558a0     poly2d.obj
 0002:000058b8       ??_C@_06LAPHAKDE@coords?$AA@ 004558b8     poly2d.obj
 0002:000058c0       __real@3ec0c6f7c0000000    004558c0     poly2d.obj
 0002:000058c8       ??_C@_0BM@BHOIEKIO@File?5?$CFs?5has?5been?5corrupted?6?$AA@ 004558c8     polyfile.obj
 0002:000058e4       ??_C@_0BE@DHLGINGL@?$CI?5?$CFg?5?$CFg?5?$CFg?5?$CFg?5?$CFg?5?$CJ?6?$AA@ 004558e4     polyfile.obj
 0002:000058f8       ??_C@_0BO@DICBJNOG@Unexpected?5end?5of?5file?5in?5?$CFs?6?$AA@ 004558f8     polyfile.obj
 0002:00005918       ??_C@_01KDCPPGHE@r?$AA@    00455918     polyfile.obj
 0002:0000591c       ??_C@_0BK@HDHDIDM@out?5of?5memory?3?5winding_t?6?$AA@ 0045591c     polylib.obj
 0002:00005938       ??_C@_0BG@JMENJOBJ@?4?4?2common?2polylib?4cpp?$AA@ 00455938     polylib.obj
 0002:00005950       __real@4100000000000000    00455950     polylib.obj
 0002:00005958       ??_C@_0CD@BHBKGNIF@BaseWindingForPlane?3?5no?5axis?5fou@ 00455958     polylib.obj
 0002:0000597c       __real@c8800000            0045597c     polylib.obj
 0002:00005980       ??_C@_0BG@KLBGIBA@?$CFs?6?7?$CIb?9?$DOptCount?$CJ?5?$DN?5?$CFi?$AA@ 00455980     polylib.obj
 0002:00005998       ??_C@_0BF@NBCPALCC@?$CIb?9?$DOptCount?5?$DM?$DN?51024?$CJ?$AA@ 00455998     polylib.obj
 0002:000059b0       ??_C@_0BG@HJLJEPNP@?$CFs?6?7?$CIf?9?$DOptCount?$CJ?5?$DN?5?$CFi?$AA@ 004559b0     polylib.obj
 0002:000059c8       ??_C@_0BF@JPMCOAHL@?$CIf?9?$DOptCount?5?$DM?$DN?51024?$CJ?$AA@ 004559c8     polylib.obj
 0002:000059e0       ??_C@_0BN@KGBLCEKH@b?9?$DOptCount?5?$DM?$DN?5maxPts?6?7?$CFi?0?5?$CFi?$AA@ 004559e0     polylib.obj
 0002:00005a00       ??_C@_0BN@PBHFEGHG@f?9?$DOptCount?5?$DM?$DN?5maxPts?6?7?$CFi?0?5?$CFi?$AA@ 00455a00     polylib.obj
 0002:00005a20       ??_C@_0BK@LEIHJDAP@?$CFs?6?7?$CIaxialPlaneAxis?$CJ?5?$DN?5?$CFi?$AA@ 00455a20     polylib.obj
 0002:00005a40       ??_C@_0EC@PEAPPPKG@?$CI?$CBexactAxialPlane?5?$HM?$HM?5?$CIaxialPlane@ 00455a40     polylib.obj
 0002:00005a84       ??_C@_04JFCNHLLM@back?$AA@ 00455a84     polylib.obj
 0002:00005a8c       ??_C@_05HJNNLMDJ@front?$AA@ 00455a8c     polylib.obj
 0002:00005a94       ??_C@_0BL@MHOMKAC@Vec3LengthSq?$CI?5normal?5?$CJ?5?$DO?50?$AA@ 00455a94     polylib.obj
 0002:00005ab0       ??_C@_06IKLLLDHL@normal?$AA@ 00455ab0     polylib.obj
 0002:00005ab8       ??_C@_02LMMGJAGL@in?$AA@   00455ab8     polylib.obj
 0002:00005abc       ??_C@_0CD@PEDPMDOJ@ClipWinding?3?5MAX_POINTS_ON_WINDI@ 00455abc     polylib.obj
 0002:00005ae0       ??_C@_0L@DCNGGBDP@?$CFi?5seconds?$AA@ 00455ae0     print.obj
 0002:00005aec       ??_C@_07PKFONIJM@?$CFi?3?$CF02i?$AA@ 00455aec     print.obj
 0002:00005af4       ??_C@_0N@LAFMMMOE@?$CFi?3?$CF02i?3?$CF02i?$AA@ 00455af4     print.obj
 0002:00005b04       ??_C@_01LIIJDEN@?$AN?$AA@  00455b04     print.obj
 0002:00005b08       ??_C@_0BK@FNMCKCAA@?5remaining?5?5?5?5?5?5?5?5?5?5?5?5?5?5?5?$AA@ 00455b08     print.obj
 0002:00005b24       ??_C@_07GLNJMCIC@?5done?0?5?$AA@ 00455b24     print.obj
 0002:00005b2c       ??_C@_02KEGNLNML@?0?5?$AA@ 00455b2c     print.obj
 0002:00005b30       ??_C@_0BB@DBKNCKJ@?$CFi?4?$CFi?$CF?$CF?5complete?$AA@ 00455b30     print.obj
 0002:00005b44       ??_C@_0CN@PHACHKHH@?9?9?9?9?9?9?9?9?9?9?9?9?9?9?9?9?9?9?9?9?9?9?9?9?9?9?9?9?9?9?9?9@ 00455b44     print.obj
 0002:00005b74       ??_C@_0DE@FAALABLP@?4?5?5?5?5?5?5?5?5?5?5?5?5?5?5?5?5?5?5?5?5?5?5?5?5?5?5?5?5?5?5?5@ 00455b74     print.obj
 0002:00005ba8       ??_C@_0N@KHKBAMAD@Finished?5in?5?$AA@ 00455ba8     print.obj
 0002:00005bb8       ??_C@_03BHFIDDEG@ps3?$AA@  00455bb8     targetplatform.obj
 0002:00005bbc       ??_C@_05JLJCGDMJ@xenon?$AA@ 00455bbc     targetplatform.obj
 0002:00005bc4       ??_C@_02BKJPHGNJ@pc?$AA@   00455bc4     targetplatform.obj
 0002:00005bc8       ??_C@_0EF@IOCINHEJ@Error?3?5Target?5platform?5already?5s@ 00455bc8     targetplatform.obj
 0002:00005c10       ??_C@_0BN@CJNECOCG@?4?4?2common?2targetplatform?4cpp?$AA@ 00455c10     targetplatform.obj
 0002:00005c30       ??_C@_04MEMAJGDJ@name?$AA@ 00455c30     targetplatform.obj
 0002:00005c38       ??_C@_05LDOEBFOB@?5?5?$CFs?6?$AA@ 00455c38     targetplatform.obj
 0002:00005c40       ??_C@_0EN@CDEMEAPB@No?5platform?5specified?4?5?5?8?9platfo@ 00455c40     targetplatform.obj
 0002:00005c90       ??_C@_0BP@KNJKABIH@?4?4?2src?2qcommon?2cm_tracebox?4cpp?$AA@ 00455c90     cm_tracebox.obj
 0002:00005cb0       ??_C@_0EF@BIGMDNKE@?$CBIS_NAN?$CI?$CIbounds?$CJ?$FL0?$FN?$CJ?5?$CG?$CG?5?$CBIS_NAN?$CI@ 00455cb0     cm_tracebox.obj
 0002:00005cf8       ??_C@_0BK@KBLJOIHC@?$CBIS_NAN?$CImat?9?$DOtransWeight?$CJ?$AA@ 00455cf8     dobj.obj
 0002:00005d14       ??_C@_0DA@LGDHNEGE@c?3?2cod?2cod5?2cod?2codsrc?2src?2xanim@ 00455d14     dobj.obj
 0002:00005d48       ??_C@_0GJ@PNCLEAAH@?$CBIS_NAN?$CI?$CImat?9?$DOquat?$CJ?$FL0?$FN?$CJ?5?$CG?$CG?5?$CBIS_N@ 00455d48     dobj.obj
 0002:00005db4       ??_C@_0P@IMMEADHI@Bone?5?$CFd?3?5?8?$CFs?8?6?$AA@ 00455db4     dobj.obj
 0002:00005dc4       ??_C@_0N@MJPBJHHK@Model?5?8?$CFs?8?3?6?$AA@ 00455dc4     dobj.obj
 0002:00005dd8       ??_C@_0HH@FMFGHGNB@WARNING?3?5Attempting?5to?5meld?5mode@ 00455dd8     dobj.obj
 0002:00005e50       ??_C@_0BE@ICHOJLKE@duplicateParts?$FLlen?$FN?$AA@ 00455e50     dobj.obj
 0002:00005e64       ??_C@_0CJ@JACGALKE@parentIndex?5?$DM?5boneIndex?5?$CL?5localB@ 00455e64     dobj.obj
 0002:00005e90       ??_C@_0BG@HHBNJNKH@parentIndex?5?$CL?51?5?$DM?5256?$AA@ 00455e90     dobj.obj
 0002:00005ea8       ??_C@_0CF@KEILLOAM@boneIndex?5?$CL?5localBoneIndex?5?$CL?51?5?$DM@ 00455ea8     dobj.obj
 0002:00005ed0       ??_C@_0CK@BODJFHPE@parentIndex?5?$CB?$DN?5boneIndex?5?$CL?5local@ 00455ed0     dobj.obj
 0002:00005efc       ??_C@_0BF@FHMPLBAP@?$CIparentIndex?5?$CB?$DN?5254?$CJ?$AA@ 00455efc     dobj.obj
 0002:00005f14       ??_C@_0BH@MJKNMJKN@?$CFs?6?7?$CIparentIndex?$CJ?5?$DN?5?$CFi?$AA@ 00455f14     dobj.obj
 0002:00005f2c       ??_C@_0BF@FGANNLDI@?$CIparentIndex?5?$CB?$DN?5255?$CJ?$AA@ 00455f2c     dobj.obj
 0002:00005f44       ??_C@_0CA@HIEALPCC@obj?9?$DOduplicatePartsSize?5?$DN?$DN?5size?$AA@ 00455f44     dobj.obj
 0002:00005f64       ??_C@_0BF@EGGEKFLM@?$CBobj?9?$DOduplicateParts?$AA@ 00455f64     dobj.obj
 0002:00005f7c       ??_C@_07GKMPJPNA@g_empty?$AA@ 00455f7c     dobj.obj
 0002:00005f84       ??_C@_0O@CLAOACPJ@numModels?5?$DO?50?$AA@ 00455f84     dobj.obj
 0002:00005f94       ??_C@_0BN@HLDACAFP@boneCount?5?$DN?$DN?5?$CIbyte?$CJboneCount?$AA@ 00455f94     dobj.obj
 0002:00005fb4       ??_C@_0BN@BPFCIGGB@numModels?5?$DN?$DN?5?$CIbyte?$CJnumModels?$AA@ 00455fb4     dobj.obj
 0002:00005fd4       ??_C@_0CM@JBHENLLD@modelParents?$FLcurrNumModels?$FN?5?$DN?$DN?5N@ 00455fd4     dobj.obj
 0002:00006000       ??_C@_0EG@COLLEHOC@WARNING?3?5Part?5?8?$CFs?8?5not?5found?5in?5@ 00456000     dobj.obj
 0002:00006048       ??_C@_0EG@HHHKFJBK@dobj?5for?5xmodel?5?8?$CFs?8?5has?5more?5th@ 00456048     dobj.obj
 0002:00006090       ??_C@_0O@JPFOHEBM@currNumModels?$AA@ 00456090     dobj.obj
 0002:000060a0       ??_C@_0BG@DOPLPOAF@?4?4?2src?2xanim?2dobj?4cpp?$AA@ 004560a0     dobj.obj
 0002:000060b8       ??_C@_04JOAKDJPD@?$CKpos?$AA@ 004560b8     dobj.obj
 0002:000060c0       ??_C@_0BE@KHFNPM@obj?9?$DOduplicateParts?$AA@ 004560c0     dobj.obj
 0002:000060d4       ??_C@_03GJLPFLNF@obj?$AA@  004560d4     dobj.obj
 0002:000060d8       ??_C@_04OMNMMPJP@skel?$AA@ 004560d8     dobj.obj
 0002:000060e0       ??_C@_0BF@CIADMHEE@?$CBIS_NAN?$CIobj?9?$DOradius?$CJ?$AA@ 004560e0     dobj.obj
 0002:000060f8       ??_C@_0CK@HKCHAIG@?$CIunsigned?$CJnumModels?5?$DM?$DN?5DOBJ_MAX_@ 004560f8     dobj.obj
 0002:00006124       ??_C@_0L@JOMMIGPO@dobjModels?$AA@ 00456124     dobj.obj
 0002:00006130       ??_C@_0M@FJKEBFGC@tree?9?$DOanims?$AA@ 00456130     dobj.obj
 0002:0000613c       ??_C@_09NLGKPHEB@numModels?$AA@ 0045613c     dobj.obj
 0002:00006148       ??_C@_0DL@FBPAHPNH@surfIndex?5doesn?8t?5index?5model?9?$DOn@ 00456148     dobj.obj
 0002:00006184       ??_C@_08CJGEBALO@lod?5?$DO?$DN?50?$AA@ 00456184     dobj.obj
 0002:00006190       ??_C@_07MGCPDNLD@DEFAULT?$AA@ 00456190     dobj.obj
 0002:00006198       ??_C@_0FM@KGDBLNGM@subMatIndex?5doesn?8t?5index?5obj?9?$DOm@ 00456198     dobj.obj
 0002:000061f4       ??_C@_0BE@EPEHIPFI@?$CFs?6?7?$CInumBones?$CJ?5?$DN?5?$CFi?$AA@ 004561f4     dobj.obj
 0002:00006208       ??_C@_0BA@HDCELBPP@?$CInumBones?5?$DO?$DN?50?$CJ?$AA@ 00456208     dobj.obj
 0002:00006218       ??_C@_0L@MKDLGBOI@index?5?$DO?$DN?50?$AA@ 00456218     dobj.obj
 0002:00006228       __real@3f00002000000000    00456228     dobj.obj
 0002:00006230       ??_C@_0BG@CLFFDLB@?6No?5part?5duplicates?4?6?$AA@ 00456230     dobj.obj
 0002:00006248       ??_C@_0BI@PAPPDOMK@?$CFd?5?$CI?8?$CFs?8?$CJ?5?9?$DO?5?$CFd?5?$CI?8?$CFs?8?$CJ?6?$AA@ 00456248     dobj.obj
 0002:00006260       ??_C@_0BD@IOMKNLDP@?6Part?5duplicates?3?6?$AA@ 00456260     dobj.obj
 0002:00006274       ??_C@_08FDCLIJPK@?6Bones?3?6?$AA@ 00456274     dobj.obj
 0002:00006280       ??_C@_09MCNBNLPL@?$CFd?3?5?8?$CFs?8?6?$AA@ 00456280     dobj.obj
 0002:0000628c       ??_C@_09PMNKLKOK@?6Models?3?6?$AA@ 0045628c     dobj.obj
 0002:00006298       ??_C@_08GIPLIJFN@No?5Dobj?6?$AA@ 00456298     dobj.obj
 0002:000062a8       ??_C@_0ED@FNIHFADH@control?1meld?5conflict?5on?5bone?5?$CFd@ 004562a8     dobj_skel.obj
 0002:000062ec       ??_C@_0BL@KEOLEMGE@?4?4?2src?2xanim?2dobj_skel?4cpp?$AA@ 004562ec     dobj_skel.obj
 0002:00006308       ??_C@_0BI@KDJINHIF@parentIndex?5?$DM?5boneIndex?$AA@ 00456308     dobj_skel.obj
 0002:00006320       ??_C@_0GP@KLIGEAJE@?$CBIS_NAN?$CI?$CImat?$FLboneIndex?$FN?4trans?$CJ?$FL0@ 00456320     dobj_skel.obj
 0002:00006390       ??_C@_0JB@OBKOGJEB@?$CBIS_NAN?$CI?$CImat?$FLboneIndex?$FN?4quat?$CJ?$FL0?$FN@ 00456390     dobj_skel.obj
 0002:00006424       ??_C@_0P@DOPMJCMA@bits?5?$CG?5boneBit?$AA@ 00456424     dobj_skel.obj
 0002:00006438       ??_C@_0GA@LDKHDCJH@?$CBIS_NAN?$CI?$CIchildMat?9?$DOtrans?$CJ?$FL0?$FN?$CJ?5?$CG?$CG@ 00456438     dobj_skel.obj
 0002:00006498       ??_C@_0HN@HDIFGDKE@?$CBIS_NAN?$CI?$CIchildMat?9?$DOquat?$CJ?$FL0?$FN?$CJ?5?$CG?$CG?5@ 00456498     dobj_skel.obj
 0002:00006518       ??_C@_0CC@EKHKMKHH@skel?9?$DOpartBits?4anim?$FL0?$FN?5?$CG?5HIGH_BI@ 00456518     dobj_skel.obj
 0002:0000653c       ??_C@_0CC@PCAGGPKL@skel?9?$DOpartBits?4skel?$FL0?$FN?5?$CG?5HIGH_BI@ 0045653c     dobj_skel.obj
 0002:00006560       ??_C@_0EJ@GJCNMIAE@skel?9?$DOpartBits?4anim?$FLmodelParent?5@ 00456560     dobj_skel.obj
 0002:000065b0       ??_C@_0EJ@EJALMCJE@skel?9?$DOpartBits?4skel?$FLmodelParent?5@ 004565b0     dobj_skel.obj
 0002:000065fc       ??_C@_0CN@OBGNFNCP@skel?9?$DOpartBits?4anim?$FLboneIndexHig@ 004565fc     dobj_skel.obj
 0002:0000662c       ??_C@_0BI@EHLNACML@modelParent?5?$DM?5boneIndex?$AA@ 0045662c     dobj_skel.obj
 0002:00006648       ??_C@_0GH@MMACNADP@skel?9?$DOpartBits?4anim?$FL?$CIboneIndex?5?9@ 00456648     dobj_skel.obj
 0002:000066b0       ??_C@_0GH@GKFEIMAB@skel?9?$DOpartBits?4skel?$FL?$CIboneIndex?5?9@ 004566b0     dobj_skel.obj
 0002:00006718       ??_C@_0GD@ODJIKFDC@?$CBIS_NAN?$CI?$CIparentMat?9?$DOtrans?$CJ?$FL0?$FN?$CJ?5?$CG@ 00456718     dobj_skel.obj
 0002:00006780       ??_C@_0IB@CFOLJIHC@?$CBIS_NAN?$CI?$CIparentMat?9?$DOquat?$CJ?$FL0?$FN?$CJ?5?$CG?$CG@ 00456780     dobj_skel.obj
 0002:00006808       ??_C@_0IB@EBCHEJAA@?$CBIS_NAN?$CI?$CIskel?9?$DOmat?$FLboneIndex?$FN?4tr@ 00456808     dobj_skel.obj
 0002:00006890       ??_C@_0KJ@GPIGHLAC@?$CBIS_NAN?$CI?$CIskel?9?$DOmat?$FLboneIndex?$FN?4qu@ 00456890     dobj_skel.obj
 0002:0000693c       ??_C@_07HNACFNIN@?$CB?$CI?$CKpos?$CJ?$AA@ 0045693c     dobj_skel.obj
 0002:00006944       ??_C@_0BM@BOFDKAPD@?4?4?2src?2xanim?2dobj_utils?4cpp?$AA@ 00456944     dobj_utils.obj
 0002:00006960       ??_C@_0BM@IFAGBADP@?$CBobj?9?$DOskel?4partBits?4skel?$FLi?$FN?$AA@ 00456960     dobj_utils.obj
 0002:0000697c       ??_C@_0BP@ECKCJAMP@?$CBobj?9?$DOskel?4partBits?4control?$FLi?$FN?$AA@ 0045697c     dobj_utils.obj
 0002:0000699c       ??_C@_0BM@KDACOAAF@?$CBobj?9?$DOskel?4partBits?4anim?$FLi?$FN?$AA@ 0045699c     dobj_utils.obj
 0002:000069b8       ??_C@_0CH@HNIHGPEO@?4?4?2src?2gfx_d3d?2r_xsurface_load_o@ 004569b8     r_xsurface_load_obj.obj
 0002:000069e0       ??_C@_0CA@DIICKPMH@boneOffset?5?$DN?$DN?5blend?9?$DOboneOffset?$AA@ 004569e0     r_xsurface_load_obj.obj
 0002:00006a00       ??_C@_0DD@NKJOIBIO@surface?9?$DOdeformed?5?$DN?$DN?5?$CIsurface?9?$DOv@ 00456a00     r_xsurface_load_obj.obj
 0002:00006a38       ??_C@_0EH@GKNAJPNL@?$CIbyte?5?$CK?$CJvertsBlendOut?5?9?5?$CIbyte?5?$CK?$CJ@ 00456a38     r_xsurface_load_obj.obj
 0002:00006a80       ??_C@_0DE@NFJJABL@vert3Out?5?$DN?$DN?5verts3?5?$CL?5surface?9?$DOve@ 00456a80     r_xsurface_load_obj.obj
 0002:00006ab4       ??_C@_0DE@POLEABDI@vert2Out?5?$DN?$DN?5verts2?5?$CL?5surface?9?$DOve@ 00456ab4     r_xsurface_load_obj.obj
 0002:00006ae8       ??_C@_0DE@DBPDLEBM@vert1Out?5?$DN?$DN?5verts1?5?$CL?5surface?9?$DOve@ 00456ae8     r_xsurface_load_obj.obj
 0002:00006b1c       ??_C@_0DE@MCBOCFDP@vert0Out?5?$DN?$DN?5verts0?5?$CL?5surface?9?$DOve@ 00456b1c     r_xsurface_load_obj.obj
 0002:00006b50       ??_C@_08LBPLHFEA@blendOut?$AA@ 00456b50     r_xsurface_load_obj.obj
 0002:00006b5c       ??_C@_08JCDPJHKA@vert0Out?$AA@ 00456b5c     r_xsurface_load_obj.obj
 0002:00006b68       ??_C@_08KPFPLOBA@vert1Out?$AA@ 00456b68     r_xsurface_load_obj.obj
 0002:00006b74       ??_C@_08OIPPMEMA@vert2Out?$AA@ 00456b74     r_xsurface_load_obj.obj
 0002:00006b80       ??_C@_08NFJPONHA@vert3Out?$AA@ 00456b80     r_xsurface_load_obj.obj
 0002:00006b8c       ??_C@_0BN@NNCJLBEH@?$CFs?6?7?$CIverts?9?$DOnumWeights?$CJ?5?$DN?5?$CFi?$AA@ 00456b8c     r_xsurface_load_obj.obj
 0002:00006bac       ??_C@_0BJ@PANGEADF@?$CIverts?9?$DOnumWeights?5?$DN?$DN?53?$CJ?$AA@ 00456bac     r_xsurface_load_obj.obj
 0002:00006bc8       ??_C@_0DB@KFJJHENA@surface?9?$DOvertInfo?4vertCount?$FLi?$FN?5?$DN@ 00456bc8     r_xsurface_load_obj.obj
 0002:00006bfc       ??_C@_0BM@KIPGALBD@XModelNumBones?$CI?5model?5?$CJ?5?$DO?51?$AA@ 00456bfc     r_xsurface_load_obj.obj
 0002:00006c18       ??_C@_0CE@KHBBGACH@allocCount?5?$DN?$DN?5surface?9?$DOtriCount?5@ 00456c18     r_xsurface_load_obj.obj
 0002:00006c3c       ??_C@_0DL@BHNJANOD@rigidVertListArray?$FLj?$FN?4triCount?5?$DN@ 00456c3c     r_xsurface_load_obj.obj
 0002:00006c78       ??_C@_0DB@DKLLKGCE@rigidVertListArray?$FLj?$FN?4triOffset?5@ 00456c78     r_xsurface_load_obj.obj
 0002:00006cac       ??_C@_0DE@IIJCJCAI@surface?9?$DOtriIndices?$FLvertIndex?$FN?5?$DM@ 00456cac     r_xsurface_load_obj.obj
 0002:00006ce0       ??_C@_0BE@MODANDKO@surface?9?$DOtriIndices?$AA@ 00456ce0     r_xsurface_load_obj.obj
 0002:00006cf4       ??_C@_09DBHJHOFJ@?$CBdeformed?$AA@ 00456cf4     r_xsurface_load_obj.obj
 0002:00006d00       ??_C@_08JEGFGKGP@deformed?$AA@ 00456d00     r_xsurface_load_obj.obj
 0002:00006d0c       ??_C@_0CF@MIEGAJLO@blendBoneOffset?5?$DN?$DN?5verts?9?$DOboneOf@ 00456d0c     r_xsurface_load_obj.obj
 0002:00006d34       ??_C@_0BG@NDIBGNBE@?$CFs?6?7?$CInumWeights?$CJ?5?$DN?5?$CFi?$AA@ 00456d34     r_xsurface_load_obj.obj
 0002:00006d4c       ??_C@_0BB@IDHMFFJC@?$CInumWeights?5?$DM?54?$CJ?$AA@ 00456d4c     r_xsurface_load_obj.obj
 0002:00006d60       ??_C@_0DC@HPAHCHBH@vertListCount?5?$DM?5ARRAY_COUNT?$CI?5rig@ 00456d60     r_xsurface_load_obj.obj
 0002:00006d94       ??_C@_0BN@DDHGHKMI@?$CFs?6?7?$CIsurface?9?$DOtriCount?$CJ?5?$DN?5?$CFi?$AA@ 00456d94     r_xsurface_load_obj.obj
 0002:00006db4       ??_C@_0BI@IDBDOGMH@?$CIsurface?9?$DOtriCount?5?$DO?50?$CJ?$AA@ 00456db4     r_xsurface_load_obj.obj
 0002:00006dcc       ??_C@_07DCLBNMLN@generic?$AA@ 00456dcc     scr_memorytree.obj
 0002:00006dd4       ??_C@_0BA@JANHNPNB@debugger?5string?$AA@ 00456dd4     scr_memorytree.obj
 0002:00006de4       ??_C@_0O@ICAFPEEA@config?5string?$AA@ 00456de4     scr_memorytree.obj
 0002:00006df4       ??_C@_0N@HMEJJFHJ@animscripted?$AA@ 00456df4     scr_memorytree.obj
 0002:00006e04       ??_C@_08KBPLAG@tag?5info?$AA@ 00456e04     scr_memorytree.obj
 0002:00006e10       ??_C@_05ENKANFLO@class?$AA@ 00456e10     scr_memorytree.obj
 0002:00006e18       ??_C@_0O@KKBBPBPK@script?5string?$AA@ 00456e18     scr_memorytree.obj
 0002:00006e28       ??_C@_0N@BELKMEKE@script?5parse?$AA@ 00456e28     scr_memorytree.obj
 0002:00006e38       ??_C@_0L@PKOCNPDP@model?5list?$AA@ 00456e38     scr_memorytree.obj
 0002:00006e44       ??_C@_0BA@DEHENMIL@duplicate?5parts?$AA@ 00456e44     scr_memorytree.obj
 0002:00006e54       ??_C@_0P@EOHMGJMJ@model?5part?5map?$AA@ 00456e54     scr_memorytree.obj
 0002:00006e64       ??_C@_0L@JLIEOHGE@model?5part?$AA@ 00456e64     scr_memorytree.obj
 0002:00006e70       ??_C@_09PCPGEBBH@anim?5part?$AA@ 00456e70     scr_memorytree.obj
 0002:00006e7c       ??_C@_07IHELBNLD@surface?$AA@ 00456e7c     scr_memorytree.obj
 0002:00006e84       ??_C@_04FGEHGIFJ@temp?$AA@ 00456e84     scr_memorytree.obj
 0002:00006e8c       ??_C@_08OIBPHJGN@external?$AA@ 00456e8c     scr_memorytree.obj
 0002:00006e98       ??_C@_0BA@GGJKDJMA@small?5anim?5tree?$AA@ 00456e98     scr_memorytree.obj
 0002:00006ea8       ??_C@_09PGKIJED@anim?5tree?$AA@ 00456ea8     scr_memorytree.obj
 0002:00006eb4       ??_C@_09PNLGLKBM@notetrack?$AA@ 00456eb4     scr_memorytree.obj
 0002:00006ec0       ??_C@_06NBFPPGEG@vector?$AA@ 00456ec0     scr_memorytree.obj
 0002:00006ec8       ??_C@_06FJHNOCKE@thread?$AA@ 00456ec8     scr_memorytree.obj
 0002:00006ed0       ??_C@_05LBJMNBOG@empty?$AA@ 00456ed0     scr_memorytree.obj
 0002:00006ed8       ??_C@_0O@DPHEFNLJ@?$CFs?3?5?8?$CFs?8?5?$CI?$CFd?$CJ?$AA@ 00456ed8     scr_memorytree.obj
 0002:00006ee8       ??_C@_06NNMGGCE@?$DMFREE?$DO?$AA@ 00456ee8     scr_memorytree.obj
 0002:00006ef0       ??_C@_0CB@POICNPIJ@?4?4?2src?2script?2scr_memorytree?4cpp@ 00456ef0     scr_memorytree.obj
 0002:00006f14       ??_C@_03IHCLBPIC@num?$AA@  00456f14     scr_memorytree.obj
 0002:00006f18       ??_C@_0BA@FJMJILOI@node?5?$CB?$DN?5nodeNum?$AA@ 00456f18     scr_memorytree.obj
 0002:00006f28       ??_C@_0BA@DFJDBJC@node?5?$CB?$DN?5newNode?$AA@ 00456f28     scr_memorytree.obj
 0002:00006f38       ??_C@_0BE@OBJOGODA@node?5?$DN?$DN?5?$CKparentNode?$AA@ 00456f38     scr_memorytree.obj
 0002:00006f4c       ??_C@_0BD@MAKDOFIK@newNode?5?$CB?$DN?5nodeNum?$AA@ 00456f4c     scr_memorytree.obj
 0002:00006f60       ??_C@_0BC@ELGEGFHO@score?5?$CB?$DN?5newScore?$AA@ 00456f60     scr_memorytree.obj
 0002:00006f74       ??_C@_0BA@FFNEJKCP@newNode?5?$CB?$DN?5node?$AA@ 00456f74     scr_memorytree.obj
 0002:00006f84       ??_C@_0CG@LPBLMKIL@size?5?$DO?$DN?50?5?$CG?$CG?5size?5?$DM?$DN?5MEMORY_NODE@ 00456f84     scr_memorytree.obj
 0002:00006fac       ??_C@_07JPLHAEDP@oldNode?$AA@ 00456fac     scr_memorytree.obj
 0002:00006fb4       ??_C@_0BH@OODKHBOG@prevScore?5?$CB?$DN?5nextScore?$AA@ 00456fb4     scr_memorytree.obj
 0002:00006fcc       ??_C@_0BD@HCALCENC@Sys_IsMainThread?$CI?$CJ?$AA@ 00456fcc     scr_memorytree.obj
 0002:00006fe0       ??_C@_0DD@FKLOBMOK@?$CFs?3?5failed?5allocation?5of?5?$CFd?5byte@ 00456fe0     scr_memorytree.obj
 0002:00007014       ??_C@_0CE@PAOOGGFO@MT_GetSize?3?5max?5allocation?5excee@ 00457014     scr_memorytree.obj
 0002:00007038       ??_C@_0N@KPGELDJJ@numBytes?5?$DO?50?$AA@ 00457038     scr_memorytree.obj
 0002:00007048       ??_C@_0CO@EJAKCBBE@?$CI?$CBscrMemTreeDebugGlob?4mt_usage_s@ 00457048     scr_memorytree.obj
 0002:00007078       ??_C@_0CI@BNBMGHOJ@?$CFs?6?7?$CIMT_NodeInfoString?$CI?5nodeNum?5@ 00457078     scr_memorytree.obj
 0002:000070a0       ??_C@_0CJ@BKLILBOO@?$CI?$CBscrMemTreeDebugGlob?4mt_usage?$FLn@ 004570a0     scr_memorytree.obj
 0002:000070cc       ??_C@_04GPMDFGEJ@type?$AA@ 004570cc     scr_memorytree.obj
 0002:000070d4       ??_C@_0BD@INAEOFDD@?$CFs?6?7?$CInodeNum?$CJ?5?$DN?5?$CFi?$AA@ 004570d4     scr_memorytree.obj
 0002:000070e8       ??_C@_0CO@KAEMCFGA@?$CInodeNum?5?$DO?$DN?50?5?$CG?$CG?5nodeNum?5?$DM?5MEMOR@ 004570e8     scr_memorytree.obj
 0002:00007118       ??_C@_0O@JJOPCFOP@MT_AllocIndex?$AA@ 00457118     scr_memorytree.obj
 0002:00007128       ??_C@_0CF@KGNBPHDM@nodeNum?5?$DN?$DN?5?$CInodeNum?5?$CG?5?$HO?$CIlowBit?5?9@ 00457128     scr_memorytree.obj
 0002:00007150       ??_C@_0BJ@BIIDAEKP@size?5?$DM?$DN?5MEMORY_NODE_BITS?$AA@ 00457150     scr_memorytree.obj
 0002:0000716c       ??_C@_0DF@KLHKIEBL@?$CIscrMemTreeDebugGlob?4mt_usage_si@ 0045716c     scr_memorytree.obj
 0002:000071a4       ??_C@_0CG@DAOKHILN@scrMemTreeDebugGlob?4mt_usage?$FLnod@ 004571a4     scr_memorytree.obj
 0002:000071cc       ??_C@_0CL@DONIAHKP@nodeNum?5?$DO?50?5?$CG?$CG?5nodeNum?5?$DM?5MEMORY_@ 004571cc     scr_memorytree.obj
 0002:000071f8       ??_C@_0DD@JDNBECIG@?$CFs?6?7?$CI?$CIMemoryNode?5?$CK?$CJ?5p?5?9?5scrMemTr@ 004571f8     scr_memorytree.obj
 0002:00007230       ??_C@_0GO@MMGLMFC@?$CI?$CIMemoryNode?5?$CK?$CJ?5p?5?9?5scrMemTreeGl@ 00457230     scr_memorytree.obj
 0002:000072a0       ??_C@_0CF@ELGGNEFH@stringValue?5?$CK?5MT_NODE_SIZE?5?$DM?5MT_@ 004572a0     scr_stringlist.obj
 0002:000072c8       ??_C@_0CB@LHKCABCP@?4?4?2src?2script?2scr_stringlist?4cpp@ 004572c8     scr_stringlist.obj
 0002:000072ec       ??_C@_0M@FFMMCBKI@stringValue?$AA@ 004572ec     scr_stringlist.obj
 0002:000072f8       ??_C@_08HILFPOCD@?$DMBINARY?$DO?$AA@ 004572f8     scr_stringlist.obj
 0002:00007304       ??_C@_06CBHGEMFM@?$DMNULL?$DO?$AA@ 00457304     scr_stringlist.obj
 0002:0000730c       ??_C@_03OJMAPEGJ@str?$AA@  0045730c     scr_stringlist.obj
 0002:00007310       ??_C@_0DO@FBNOAMHG@?$CB?$CIscrStringGlob?4hashTable?$FLprev?$FN?4@ 00457310     scr_stringlist.obj
 0002:00007350       ??_C@_0BJ@LAIJILNP@?$CB?$CIhash?5?$CG?5HASH_STAT_MASK?$CJ?$AA@ 00457350     scr_stringlist.obj
 0002:0000736c       ??_C@_0BG@JFKPLOGN@?$CBscrStringGlob?4inited?$AA@ 0045736c     scr_stringlist.obj
 0002:00007384       ??_C@_0DL@CAIEBLIC@?$CInewEntry?9?$DOstatus_next?5?$CG?5HASH_ST@ 00457384     scr_stringlist.obj
 0002:000073c0       ??_C@_0DO@DDIPDELD@?$CInewEntry?9?$DOstatus_next?5?$CG?5HASH_ST@ 004573c0     scr_stringlist.obj
 0002:00007400       ??_C@_0DB@LMDEAJIE@refStr?9?$DOstr?5?$DN?$DN?5SL_ConvertToStrin@ 00457400     scr_stringlist.obj
 0002:00007434       ??_C@_0DI@FDCFFEBD@?$CIentry?9?$DOstatus_next?5?$CG?5HASH_STAT_@ 00457434     scr_stringlist.obj
 0002:0000746c       ??_C@_0BF@MLMEKHAO@refStr?9?$DOuser?5?$DN?$DN?5user?$AA@ 0045746c     scr_stringlist.obj
 0002:00007484       ??_C@_0CL@HGEBCDPI@exceeded?5maximum?5number?5of?5scrip@ 00457484     scr_stringlist.obj
 0002:000074b0       ??_C@_04DGEAFHIB@prev?$AA@ 004574b0     scr_stringlist.obj
 0002:000074b8       ??_C@_0DL@BJGOCGLD@?$CIentry?9?$DOstatus_next?5?$CG?5HASH_STAT_@ 004574b8     scr_stringlist.obj
 0002:000074f4       ??_C@_0DL@BCNODOJA@?$CInewEntry?9?$DOstatus_next?5?$CG?5HASH_ST@ 004574f4     scr_stringlist.obj
 0002:00007530       ??_C@_0EG@DIGFKEAA@exceeded?5maximum?5number?5of?5scrip@ 00457530     scr_stringlist.obj
 0002:00007578       ??_C@_0DC@NGPBEBEK@?$CFs?6?7?$CISL_DebugConvertToString?$CI?5st@ 00457578     scr_stringlist.obj
 0002:000075ac       ??_C@_0CN@JDJINGJC@?$CInewNext?5?$CG?5HASH_STAT_MASK?$CJ?5?$DN?$DN?5HA@ 004575ac     scr_stringlist.obj
 0002:000075dc       ??_C@_0BC@HCPDJEFK@newEntry?5?$CB?$DN?5entry?$AA@ 004575dc     scr_stringlist.obj
 0002:000075f0       ??_C@_0BO@OLBELBKP@?$CFs?6?7?$CIentry?9?$DOstatus_next?$CJ?5?$DN?5?$CFi?$AA@ 004575f0     scr_stringlist.obj
 0002:00007610       ??_C@_0DK@JLEDBELJ@?$CI?$CIentry?9?$DOstatus_next?5?$CG?5HASH_STAT@ 00457610     scr_stringlist.obj
 0002:0000764c       ??_C@_0BA@DJDGJMDG@?$CI?$CBrefStr?9?$DOuser?$CJ?$AA@ 0045764c     scr_stringlist.obj
 0002:0000765c       ??_C@_0BC@CKNJIEI@?$CBrefStr?9?$DOrefCount?$AA@ 0045765c     scr_stringlist.obj
 0002:00007670       ??_C@_02BEIEFPIG@?$CFg?$AA@ 00457670     scr_stringlist.obj
 0002:00007674       ??_C@_02IKAHHCAI@?$CFi?$AA@ 00457674     scr_stringlist.obj
 0002:00007678       ??_C@_04CCHAHKJA@user?$AA@ 00457678     scr_stringlist.obj
 0002:00007680       ??_C@_0BI@GKLFGNNK@?4?4?2src?2xanim?2xmodel?4cpp?$AA@ 00457680     xmodel.obj
 0002:00007698       __real@49742400            00457698     xmodel.obj
 0002:0000769c       ??_C@_0L@ODLNKACM@in2?5?$CB?$DN?5out?$AA@ 0045769c     xmodel_load_obj.obj
 0002:000076a8       ??_C@_0CB@LFMHONBC@?4?4?2src?2xanim?2xmodel_load_obj?4cpp@ 004576a8     xmodel_load_obj.obj
 0002:000076cc       ??_C@_0BG@GFFCOEIC@iQ?$FL3?$FN?5?$DN?$DN?5?$CIshort?$CJiQ?$FL3?$FN?$AA@ 004576cc     xmodel_load_obj.obj
 0002:000076e4       ??_C@_0BJ@OGGNCKNE@i?5?9?5index?5?$DN?$DN?5?$CKparentList?$AA@ 004576e4     xmodel_load_obj.obj
 0002:00007700       ??_C@_09DIDGFOLJ@index?5?$DM?5i?$AA@ 00457700     xmodel_load_obj.obj
 0002:0000770c       ??_C@_0CJ@ICDGFIPE@modelParts?9?$DOnumRootBones?5?$DN?$DN?5numR@ 0045770c     xmodel_load_obj.obj
 0002:00007738       ??_C@_0CB@BKNALPAC@modelParts?9?$DOnumBones?5?$DN?$DN?5numBones@ 00457738     xmodel_load_obj.obj
 0002:0000775c       ??_C@_0CL@GENDDLEP@ERROR?3?5xmodel?5?8?$CFs?8?5has?5more?5than@ 0045775c     xmodel_load_obj.obj
 0002:00007788       ??_C@_0EB@HOGGMKPA@ERROR?3?5xmodelparts?5?8?$CFs?8?5out?5of?5d@ 00457788     xmodel_load_obj.obj
 0002:000077cc       ??_C@_03COAJHJPB@buf?$AA@  004577cc     xmodel_load_obj.obj
 0002:000077d0       ??_C@_0CG@FFAFJKHC@ERROR?3?5xmodelparts?5?8?$CFs?8?5has?50?5le@ 004577d0     xmodel_load_obj.obj
 0002:000077f8       ??_C@_0CD@CHHPLEDP@ERROR?3?5xmodelparts?5?8?$CFs?8?5not?5foun@ 004577f8     xmodel_load_obj.obj
 0002:0000781c       ??_C@_04DFMOFHEE@?$CBbuf?$AA@ 0045781c     xmodel_load_obj.obj
 0002:00007824       ??_C@_0BP@KMGBBDNE@ERROR?3?5filename?5?8?$CFs?8?5too?5long?6?$AA@ 00457824     xmodel_load_obj.obj
 0002:00007844       ??_C@_0P@EJEAPFLF@xmodelparts?1?$CFs?$AA@ 00457844     xmodel_load_obj.obj
 0002:00007854       ??_C@_0DM@EFLHAANF@ERROR?3?5xmodel?5?8?$CFs?8?5out?5of?5date?5?$CI@ 00457854     xmodel_load_obj.obj
 0002:00007890       ??_C@_0CI@FNNDFEMM@?$CBsurf?9?$DOcontents?5?$HM?$HM?5?$CIsurf?9?$DOboneId@ 00457890     xmodel_load_obj.obj
 0002:000078b8       ??_C@_0BA@LFKCMBHD@?$CFs?6?7?$CIname?$CJ?5?$DN?5?$CFs?$AA@ 004578b8     xmodel_load_obj.obj
 0002:000078c8       ??_C@_0CP@BMOCILHE@?$CII_fabs?$CI?5Vec3Length?$CI?5plane?5?$CJ?5?9?51@ 004578c8     xmodel_load_obj.obj
 0002:000078f8       ??_C@_0M@HMGAEIBE@numCollTris?$AA@ 004578f8     xmodel_load_obj.obj
 0002:00007904       ??_C@_0BC@BEPJLKJK@?$CBmodel?9?$DOcollSurfs?$AA@ 00457904     xmodel_load_obj.obj
 0002:00007918       ??_C@_0BB@NDLBGDFL@?$CBmodel?9?$DOcontents?$AA@ 00457918     xmodel_load_obj.obj
 0002:0000792c       ??_C@_0CG@HFOCAAPJ@ERROR?3?5Cannot?5find?5xmodelparts?5?8@ 0045792c     xmodel_load_obj.obj
 0002:00007954       ??_C@_03PCBNCGFH@pos?$AA@  00457954     xmodel_load_obj.obj
 0002:00007958       ??_C@_0O@GCFJOJ@surfCount?5?$DO?50?$AA@ 00457958     xmodel_load_obj.obj
 0002:00007968       ??_C@_0O@ELEMMJEN@modelPartBits?$AA@ 00457968     xmodel_load_obj.obj
 0002:00007978       ??_C@_05HLMHLLDM@surfs?$AA@ 00457978     xmodel_load_obj.obj
 0002:00007980       ??_C@_0HJ@PFAMDNLI@ERROR?3?5File?5conflict?5?$CIbetween?5no@ 00457980     xmodel_load_obj.obj
 0002:00007a00       ??_C@_0EB@BCKAIJMI@ERROR?3?5xmodelsurfs?5?8?$CFs?8?5out?5of?5d@ 00457a00     xmodel_load_obj.obj
 0002:00007a44       ??_C@_0CF@LKAMAMPF@ERROR?3?5xmodelsurf?5?8?$CFs?8?5has?50?5len@ 00457a44     xmodel_load_obj.obj
 0002:00007a6c       ??_C@_0CC@ICICKGEP@ERROR?3?5xmodelsurf?5?8?$CFs?8?5not?5found@ 00457a6c     xmodel_load_obj.obj
 0002:00007a90       ??_C@_0P@MGCCFFDB@xmodelsurfs?1?$CFs?$AA@ 00457a90     xmodel_load_obj.obj
 0002:00007aa0       ??_C@_0CH@JEONOFJD@ERROR?3?5Cannot?5find?5?8xmodelsurfs?5@ 00457aa0     xmodel_load_obj.obj
 0002:00007ac8       ??_C@_0O@MGFMOMFE@vertCount?5?$DO?50?$AA@ 00457ac8     xmodel_load_obj.obj
 0002:00007ad8       ??_C@_0BB@LMANBIIJ@surfaceCount?5?$DO?50?$AA@ 00457ad8     xmodel_load_obj.obj
 0002:00007aec       ??_C@_08FGPNIDBO@surfaces?$AA@ 00457aec     xmodel_load_obj.obj
 0002:00007af8       ??_C@_09OFJMHCEE@usedCount?$AA@ 00457af8     xmodel_load_obj.obj
 0002:00007b04       ??_C@_0CP@CCPJIOIO@sampleCount?5?$DM?$DN?5ARRAY_COUNT?$CI?5newM@ 00457b04     xmodel_load_obj.obj
 0002:00007b34       ??_C@_0CA@FIDFCFDC@model?9?$DOcollLod?5?$DM?5model?9?$DOnumLods?$AA@ 00457b34     xmodel_load_obj.obj
 0002:00007b54       ??_C@_0BH@LDLDEHPK@config?4maxs?$FL0?$FN?5?$DO?$DN?50?40f?$AA@ 00457b54     xmodel_load_obj.obj
 0002:00007b6c       ??_C@_0BG@NMFLHNDM@surfIndex?5?$DN?$DN?5numsurfs?$AA@ 00457b6c     xmodel_load_obj.obj
 0002:00007b84       ??_C@_0L@JDEMPIFF@$default3d?$AA@ 00457b84     xmodel_load_obj.obj
 0002:00007b90       ??_C@_0CF@JIJJIACP@modelLodInfo?9?$DOsurfIndex?5?$DN?$DN?5surfI@ 00457b90     xmodel_load_obj.obj
 0002:00007bb8       ??_C@_0BM@CLLJMDED@model?9?$DOnumsurfs?5?$DN?$DN?5numsurfs?$AA@ 00457bb8     xmodel_load_obj.obj
 0002:00007bd4       ??_C@_0BO@MIJCJIIC@config?4entries?$FL0?$FN?4filename?$FL0?$FN?$AA@ 00457bd4     xmodel_load_obj.obj
 0002:00007bf4       ??_C@_0P@EOKBIGHC@model?9?$DOnumLods?$AA@ 00457bf4     xmodel_load_obj.obj
 0002:00007c04       ??_C@_0BE@NLKGCNMO@i?5?$DN?$DN?5model?9?$DOnumLods?$AA@ 00457c04     xmodel_load_obj.obj
 0002:00007c18       ??_C@_0CB@FDHLDPJH@ERROR?3?5xmodel?5?8?$CFs?8?5has?50?5length?6@ 00457c18     xmodel_load_obj.obj
 0002:00007c3c       ??_C@_0BO@FLBCDCEE@ERROR?3?5xmodel?5?8?$CFs?8?5not?5found?6?$AA@ 00457c3c     xmodel_load_obj.obj
 0002:00007c5c       ??_C@_06GIFHDKIF@shadow?$AA@ 00457c5c     xmodel_load_obj.obj
 0002:00007c64       ??_C@_09OEMLPLAE@xmodel?1?$CFs?$AA@ 00457c64     xmodel_load_obj.obj
 0002:00007c70       ??_C@_0DC@PDMIJFMD@ERROR?3?5Remove?5xmodel?5prefix?5from@ 00457c70     xmodel_load_obj.obj
 0002:00007ca4       ??_C@_0BO@HLODPKKL@?4?4?2src?2xanim?2xmodel_utils?4cpp?$AA@ 00457ca4     xmodel_utils.obj
 0002:00007cc4       ??_C@_0DK@FPDFFBHP@lodInfo?9?$DOsurfIndex?5?$CL?5lodInfo?9?$DOnu@ 00457cc4     xmodel_utils.obj
 0002:00007d00       ??_C@_0EE@BEDCBFGB@lodInfo?9?$DOsurfIndex?5doesn?8t?5index@ 00457d00     xmodel_utils.obj
 0002:00007d44       ??_C@_0CC@LJIFIBMJ@?$CKindex?5?$DN?$DN?5offset?5?$CL?5localBoneInde@ 00457d44     xmodel_utils.obj
 0002:00007d68       ??_C@_0BK@NJDJFOMI@numBones?5?$DM?5DOBJ_MAX_PARTS?$AA@ 00457d68     xmodel_utils.obj
 0002:00007d84       ??_C@_05FKHKFDID@index?$AA@ 00457d84     xmodel_utils.obj
 0002:00007d8c       ??_C@_0BB@FGODEKIJ@?4map?5parse?5error?$AA@ 00457d8c     assertive.obj
 0002:00007da0       ??_C@_0BG@GDIHIPEB@bytesRead?5?$DM?$DN?5readSize?$AA@ 00457da0     assertive.obj
 0002:00007db8       ??_C@_0BP@NJECOPMJ@?4?4?2src?2universal?2assertive?4cpp?$AA@ 00457db8     assertive.obj
 0002:00007dd8       ??_C@_0BG@JFBPNDHO@lineBufferEndPos?5?$DO?$DN?50?$AA@ 00457dd8     assertive.obj
 0002:00007df0       ??_C@_0CM@PFAEAGH@Unknown?5line?5format?5in?5the?5segme@ 00457df0     assertive.obj
 0002:00007e1c       ??_C@_0DH@DPDHJHNG@Couldn?8t?5parse?5file?5name?5in?5the?5@ 00457e1c     assertive.obj
 0002:00007e54       ??_C@_0DC@NKIIMDAO@Unknown?5line?5format?5in?5the?5publi@ 00457e54     assertive.obj
 0002:00007e88       ??_C@_0CP@KHNBLBKN@unknown?5line?5format?5in?5the?5line?5@ 00457e88     assertive.obj
 0002:00007eb8       ??_C@_0EJ@DKJGFALK@Couldn?8t?5find?5?8?$CJ?8?5for?5the?5name?5o@ 00457eb8     assertive.obj
 0002:00007f08       ??_C@_0EJ@HAFBFPCJ@Couldn?8t?5find?5?8?$CI?8?5for?5the?5name?5o@ 00457f08     assertive.obj
 0002:00007f54       ??_C@_0BN@GFOEEFMJ@Expected?5line?5number?5section?$AA@ 00457f54     assertive.obj
 0002:00007f74       ??_C@_0DH@FIPJDFFP@Couldn?8t?5parse?5file?5name?5in?5the?5@ 00457f74     assertive.obj
 0002:00007fac       ??_C@_0DC@LNEGGBIH@Unknown?5line?5format?5in?5the?5stati@ 00457fac     assertive.obj
 0002:00007fe0       ??_C@_0CG@OHLLJOFI@?$CFi?5?$CFx?3?$CFx?5?$CFi?5?$CFx?3?$CFx?5?$CFi?5?$CFx?3?$CFx?5?$CFi?5?$CFx@ 00457fe0     assertive.obj
 0002:00008008       ??_C@_0BC@BKBIFNEN@Line?5numbers?5for?5?$AA@ 00458008     assertive.obj
 0002:0000801c       ??_C@_0BB@HBOKNEGA@?5Static?5symbols?$AN?$AA@ 0045801c     assertive.obj
 0002:00008030       ??_C@_0M@NHKHJGDL@?$CFx?3?$CFx?5?$CFs?5?$CFx?$AA@ 00458030     assertive.obj
 0002:0000803c       ??_C@_0BB@CAGNPNCO@Publics?5by?5Value?$AA@ 0045803c     assertive.obj
 0002:00008050       ??_C@_0BA@GAOCFMPJ@?$CFx?3?$CFx?5?$CFxH?5?$CFs?5?$CFs?$AA@ 00458050     assertive.obj
 0002:00008060       ??_C@_0CA@POHIBBMK@?5Preferred?5load?5address?5is?5?$CFx?$AN?6?$AA@ 00458060     assertive.obj
 0002:00008080       ??_C@_04HLONOPDM@?4dll?$AA@ 00458080     assertive.obj
 0002:00008088       ??_C@_04JLMDILM@?4exe?$AA@ 00458088     assertive.obj
 0002:00008090       ??_C@_05DJJNBOFG@?$CK?4map?$AA@ 00458090     assertive.obj
 0002:00008098       ??_C@_08GAJKHJAH@?$CFs?2?$CK?4map?$AA@ 00458098     assertive.obj
 0002:000080a4       ??_C@_0P@BCBDGCL@?$CFs?0?5address?5?$CFx?$AA@ 004580a4     assertive.obj
 0002:000080b4       ??_C@_0BM@GIEDODEN@?$CFs?5?5?5?5?5?5?5?5?4?4?4?$CFs?0?5address?5?$CFx?$AA@ 004580b4     assertive.obj
 0002:000080d0       ??_C@_0BJ@IIJJLPLH@?$CFs?5?5?5?5?5?5?5?5?4?4?4?$CFs?0?5line?5?$CFi?$AA@ 004580d0     assertive.obj
 0002:000080ec       ??_C@_07JPBAEAKB@?$CFs?3?5?5?5?5?$AA@ 004580ec     assertive.obj
 0002:000080f4       ??_C@_0DF@EKDMOBHA@ASSERTION?5FAILURE?4?4?4?5?$CIthis?5text?5@ 004580f4     assertive.obj
 0002:0000812c       ??_C@_0DI@CEMGDOCC@SANITY?5CHECK?5FAILURE?4?4?4?5?$CIthis?5te@ 0045812c     assertive.obj
 0002:00008164       ??_C@_0P@CILKDAIG@INTERNAL?5ERROR?$AA@ 00458164     assertive.obj
 0002:00008174       ??_C@_0DM@DFHLEEOJ@Expression?3?6?5?5?5?5?$CFs?6?6Module?3?5?5?5?5?$CF@ 00458174     assertive.obj
 0002:000081b0       ??_C@_0BG@OPOJBHAK@?$DMunknown?5application?$DO?$AA@ 004581b0     assertive.obj
 0002:000081c8       ??_C@_09EEKGDCPH@?$DMunknown?$DO?$AA@ 004581c8     assertive.obj
 0002:000081d8       ??_C@_0FB@OMNEIAND@ASSERTEND?5?9?9?9?9?9?9?9?9?9?9?9?9?9?9?9?9?9?9?9?9?9?9@ 004581d8     assertive.obj
 0002:00008230       ??_C@_0FB@NOJKABOP@ASSERTBEGIN?5?9?9?9?9?9?9?9?9?9?9?9?9?9?9?9?9?9?9?9?9@ 00458230     assertive.obj
 0002:00008288       ??_C@_0FC@CEALONJE@ASSERTEND?5?9?5?$CI?5Recursive?5assert?5?$CJ@ 00458288     assertive.obj
 0002:000082e0       ??_C@_0FB@MMIFBGIM@ASSERTBEGIN?5?9?5?$CI?5Recursive?5assert@ 004582e0     assertive.obj
 0002:00008334       ??_C@_0DE@FILEHFCK@Assert?5Expression?3?6?5?5?5?5?$CFs?6File?3?5@ 00458334     assertive.obj
 0002:00008368       ??_C@_0CN@OMHGMFID@Filesystem?5call?5made?5without?5ini@ 00458368     com_files.obj
 0002:00008398       ??_C@_0BM@PCLMEAKM@FS_HandleForFile?3?5none?5free?$AA@ 00458398     com_files.obj
 0002:000083b4       ??_C@_0BA@BMKPMKBL@FILE?5?$CF2i?3?5?8?$CFs?8?6?$AA@ 004583b4     com_files.obj
 0002:000083c4       ??_C@_0BJ@IMPMNNIC@thread?5?$DN?$DN?5FS_THREAD_MAIN?$AA@ 004583c4     com_files.obj
 0002:000083e0       ??_C@_0BP@IBOOPEDK@?4?4?2src?2universal?2com_files?4cpp?$AA@ 004583e0     com_files.obj
 0002:00008400       ??_C@_0CF@LEBFFOJL@thread?5?$DN?$DN?5FS_THREAD_DATABASE?6?7?$CFi@ 00458400     com_files.obj
 0002:00008428       ??_C@_0BK@DMIJDHH@fsh?$FLf?$FN?4handleFiles?4file?4o?$AA@ 00458428     com_files.obj
 0002:00008444       ??_C@_0BA@BLDOJHCD@?$CBfsh?$FLf?$FN?4zipFile?$AA@ 00458444     com_files.obj
 0002:00008454       ??_C@_0N@BCKKBGMD@?$CFs?6?7?$CIf?$CJ?5?$DN?5?$CFi?$AA@ 00458454     com_files.obj
 0002:00008464       ??_C@_0CF@FCNHEGBL@?$CIf?5?$DO?50?5?$CG?$CG?5f?5?$DM?5?$CI1?5?$CL?549?5?$CL?513?5?$CL?51?5?$CL@ 00458464     com_files.obj
 0002:0000848c       ??_C@_01INIBCBCB@f?$AA@    0045848c     com_files.obj
 0002:00008490       ??_C@_0CJ@JPBFFKHB@FS_BuildOSPath?3?5os?5path?5length?5e@ 00458490     com_files.obj
 0002:000084bc       ??_C@_06BGEPDCGI@ospath?$AA@ 004584bc     com_files.obj
 0002:000084c4       ??_C@_05KNHNBLC@qpath?$AA@ 004584c4     com_files.obj
 0002:000084cc       ??_C@_04BHIIPFEC@base?$AA@ 004584cc     com_files.obj
 0002:000084d4       ??_C@_0DA@OPJLIFHH@WARNING?3?5refusing?5to?5create?5rela@ 004584d4     com_files.obj
 0002:00008504       ??_C@_02MOLJINC@?3?3?$AA@  00458504     com_files.obj
 0002:00008508       ??_C@_0BO@BOJJGCJB@Short?5write?5in?5FS_CopyFile?$CI?$CJ?6?$AA@ 00458508     com_files.obj
 0002:00008528       ??_C@_0BN@PMDPDFPE@Short?5read?5in?5FS_CopyFile?$CI?$CJ?6?$AA@ 00458528     com_files.obj
 0002:00008548       ??_C@_0BM@EEPICDIC@fsh?$FLh?$FN?4zipFile?9?$DOhasOpenFile?$AA@ 00458548     com_files.obj
 0002:00008564       ??_C@_0BB@JPKKOKOM@?$CBfsh?$FLh?$FN?4streamed?$AA@ 00458564     com_files.obj
 0002:00008578       ??_C@_0CB@MFBINMDL@dstIndex?5?$CL?51?5?$DM?5sanitizedNameSize@ 00458578     com_files.obj
 0002:0000859c       ??_C@_0M@KEIMBGNB@?$CFi?5?$CL?51?5?$DO?5?$CFi?$AA@ 0045859c     com_files.obj
 0002:000085a8       ??_C@_0BN@BKCMJGMN@dstIndex?5?$DM?$DN?5srcIndex?6?7?$CFi?0?5?$CFi?$AA@ 004585a8     com_files.obj
 0002:000085c8       ??_C@_0BN@DHAKGOP@?$CFs?6?7?$CIsanitizedNameSize?$CJ?5?$DN?5?$CFi?$AA@ 004585c8     com_files.obj
 0002:000085e8       ??_C@_0BI@DADACICI@?$CIsanitizedNameSize?5?$DO?50?$CJ?$AA@ 004585e8     com_files.obj
 0002:00008600       ??_C@_0O@MFBAAEEC@sanitizedName?$AA@ 00458600     com_files.obj
 0002:00008610       ??_C@_08BABJIOEM@filename?$AA@ 00458610     com_files.obj
 0002:0000861c       ??_C@_04HAFHENAN@?4str?$AA@ 0045861c     com_files.obj
 0002:00008624       ??_C@_06IPPMLGON@?4arena?$AA@ 00458624     com_files.obj
 0002:0000862c       ??_C@_05OMAOFEO@?4menu?$AA@ 0045862c     com_files.obj
 0002:00008634       ??_C@_0M@FPNFIGKD@?4levelshots?$AA@ 00458634     com_files.obj
 0002:00008640       ??_C@_04IFJILJI@?4cfg?$AA@ 00458640     com_files.obj
 0002:00008648       ??_C@_04LCMACLFG@?4txt?$AA@ 00458648     com_files.obj
 0002:00008650       ??_C@_05DENGLMIP@?4hlsl?$AA@ 00458650     com_files.obj
 0002:00008658       ??_C@_0CJ@MGIOFJMI@FS_FOpenFileRead?3?5?$CFs?5?$CIfound?5in?5?8@ 00458658     com_files.obj
 0002:00008684       ??_C@_0BD@NBMLGLPG@Couldn?8t?5reopen?5?$CFs?$AA@ 00458684     com_files.obj
 0002:00008698       ??_C@_0CG@BBPIBMKO@FS_FOpenFileRead?3?5?$CFs?5?$CIfound?5in?5?8@ 00458698     com_files.obj
 0002:000086c0       ??_C@_0P@CJCGDCLK@Can?8t?5find?5?$CFs?6?$AA@ 004586c0     com_files.obj
 0002:000086d0       ??_C@_05GFOLEBJA@?$CFs?1?$CFs?$AA@ 004586d0     com_files.obj
 0002:000086d8       ??_C@_0BH@JBMACPMK@FS_Read?3?5?91?5bytes?5read?$AA@ 004586d8     com_files.obj
 0002:000086f0       ??_C@_0BN@KJKCEPNA@FS_ReadFile?5with?5empty?5name?6?$AA@ 004586f0     com_files.obj
 0002:00008710       ??_C@_06HOHPNJLC@buffer?$AA@ 00458710     com_files.obj
 0002:00008718       ??_C@_04FBCNPBHI@?4iwd?$AA@ 00458718     com_files.obj
 0002:00008720       ??_C@_06NLJMOFMA@devraw?$AA@ 00458720     com_files.obj
 0002:00008728       ??_C@_0L@HBJFDBK@raw_shared?$AA@ 00458728     com_files.obj
 0002:00008734       ??_C@_03DGOGAGNC@raw?$AA@  00458734     com_files.obj
 0002:00008738       ??_C@_0P@HENFNMJG@handle?5?$CFi?3?5?$CFs?6?$AA@ 00458738     com_files.obj
 0002:00008748       ??_C@_0BA@HHMJJOGE@?6File?5Handles?3?6?$AA@ 00458748     com_files.obj
 0002:00008758       ??_C@_06KIFJAIP@?$CFs?1?$CFs?6?$AA@ 00458758     com_files.obj
 0002:00008760       ??_C@_0P@GCFMIPGN@?$CFs?5?$CI?$CFi?5files?$CJ?6?$AA@ 00458760     com_files.obj
 0002:00008770       ??_C@_0BG@HPKHMA@Current?5search?5path?3?6?$AA@ 00458770     com_files.obj
 0002:00008788       ??_C@_0CI@NBLEPGFB@?5?5?5?5localized?5assets?5are?5being?5i@ 00458788     com_files.obj
 0002:000087b0       ??_C@_07CNNBJDHA@english?$AA@ 004587b0     com_files.obj
 0002:000087b8       ??_C@_0L@CCBFPMDD@?5?5?5?5?5?5?5?5?5?5?$AA@ 004587b8     com_files.obj
 0002:000087c8       ??_C@_0JC@FJGDIHAA@WARNING?3?5Localized?5assets?5iwd?5fi@ 004587c8     com_files.obj
 0002:0000885c       ??_C@_0L@DJHPKNGO@localized_?$AA@ 0045885c     com_files.obj
 0002:00008868       ??_C@_0DM@LGEBKJGM@WARNING?3?5Exceeded?5max?5number?5of?5@ 00458868     com_files.obj
 0002:000088a4       ??_C@_03MILKEIBM@iwd?$AA@  004588a4     com_files.obj
 0002:000088a8       ??_C@_0DK@IEGGAILC@bLanguageDirectory?5?$HM?$HM?5?$CI?$CBbLanguag@ 004588a8     com_files.obj
 0002:000088e8       ??_C@_0FB@LBPEABEO@WARNING?3?5game?5folder?5?$CFs?1?$CFs?5re?9ad@ 004588e8     com_files.obj
 0002:00008940       ??_C@_0FI@NEAHBFPA@WARNING?3?5game?5folder?5?$CFs?1?$CFs?5added@ 00458940     com_files.obj
 0002:00008998       ??_C@_0O@FHFFFJDD@non?9localized?$AA@ 00458998     com_files.obj
 0002:000089a8       ??_C@_09IHMKOAIG@localized?$AA@ 004589a8     com_files.obj
 0002:000089b4       ??_C@_0M@LECGGKKC@fs_homepath?$AA@ 004589b4     com_files.obj
 0002:000089c0       ??_C@_0P@EHAEEAKK@Game?5home?5path?$AA@ 004589c0     com_files.obj
 0002:000089d0       ??_C@_0BD@BCAMGMGF@fs_ignoreLocalized?$AA@ 004589d0     com_files.obj
 0002:000089e4       ??_C@_0BH@EGPNBAGH@Ignore?5localized?5files?$AA@ 004589e4     com_files.obj
 0002:000089fc       ??_C@_09ICBLHMHG@Game?5Name?$AA@ 004589fc     com_files.obj
 0002:00008a08       ??_C@_0P@HKCCBLAF@Base?5game?5name?$AA@ 00458a08     com_files.obj
 0002:00008a18       ??_C@_0P@DKLNEFE@Base?5game?5path?$AA@ 00458a18     com_files.obj
 0002:00008a28       ??_C@_09CIALLHHK@fs_cdpath?$AA@ 00458a28     com_files.obj
 0002:00008a34       ??_C@_07OLDOAEO@CD?5path?$AA@ 00458a34     com_files.obj
 0002:00008a3c       ??_C@_0N@PLNEKBEI@fs_copyfiles?$AA@ 00458a3c     com_files.obj
 0002:00008a4c       ??_C@_0CI@LMPOHHC@Copy?5all?5used?5files?5to?5another?5l@ 00458a4c     com_files.obj
 0002:00008a74       ??_C@_08OKNDMBHA@fs_debug?$AA@ 00458a74     com_files.obj
 0002:00008a80       ??_C@_0CJ@NKDBOEGE@Enable?5file?5system?5debugging?5inf@ 00458a80     com_files.obj
 0002:00008aac       ??_C@_0BH@LDHCLPFC@?$CFd?5files?5in?5iwd?5files?6?$AA@ 00458aac     com_files.obj
 0002:00008ac4       ??_C@_0BI@FLKKINBM@?9?9?9?9?9?9?9?9?9?9?9?9?9?9?9?9?9?9?9?9?9?9?6?$AA@ 00458ac4     com_files.obj
 0002:00008adc       ??_C@_09ODOHJHGE@?$CFs_shared?$AA@ 00458adc     com_files.obj
 0002:00008ae8       ??_C@_0O@PAPPNGFK@devraw_shared?$AA@ 00458ae8     com_files.obj
 0002:00008af8       ??_C@_0BI@LBEJILEG@?9?9?9?9?9?5FS_Startup?5?9?9?9?9?9?6?$AA@ 00458af8     com_files.obj
 0002:00008b10       ??_C@_0M@BAINMAIF@default?4cfg?$AA@ 00458b10     com_files.obj
 0002:00008b20       ??_C@_0EK@IPFDBBNB@Couldn?8t?5load?5?$CFs?4?5?5Make?5sure?5Cal@ 00458b20     com_files.obj
 0002:00008b70       ?orIdentity@@3Uorientation_t@@B 00458b70     com_math.obj
 0002:00008ba0       ?identityMatrix44@@3QAY03$$CBMA 00458ba0     com_math.obj
 0002:00008be0       ??_C@_0BO@OGFFEEE@?4?4?2src?2universal?2com_math?4cpp?$AA@ 00458be0     com_math.obj
 0002:00008c00       __real@3f720d81            00458c00     com_math.obj
 0002:00008c04       __real@3ea6b0de            00458c04     com_math.obj
 0002:00008c08       ??_C@_0BL@FNKAOOHL@stride?5?$DO?$DN?5sizeof?$CI?5vec2_t?5?$CJ?$AA@ 00458c08     com_math.obj
 0002:00008c24       ??_C@_06GPGIDCJA@points?$AA@ 00458c24     com_math.obj
 0002:00008c2c       ??_C@_0BL@JGPMDNNO@stride?5?$DO?$DN?5sizeof?$CI?5vec3_t?5?$CJ?$AA@ 00458c2c     com_math.obj
 0002:00008c48       ??_C@_03DAPAKLGM@dir?$AA@  00458c48     com_math.obj
 0002:00008c4c       ??_C@_09DGJDHIBA@in?5?$CB?$DN?5out?$AA@ 00458c4c     com_math.obj
 0002:00008c58       ??_C@_03GPLAPFIO@det?$AA@  00458c58     com_math.obj
 0002:00008c5c       ??_C@_0M@CHIEKLEM@?$CFg?5?$CFg?5?$CFg?5?$CFg?$AA@ 00458c5c     com_math.obj
 0002:00008c68       __real@48000000            00458c68     com_math.obj
 0002:00008c6c       ??_C@_04IFBFDIKF@maxs?$AA@ 00458c6c     com_math.obj
 0002:00008c74       ??_C@_04FIAKMPII@mins?$AA@ 00458c74     com_math.obj
 0002:00008c7c       ??_C@_01MHEDDDHA@v?$AA@    00458c7c     com_math.obj
 0002:00008c80       ??_C@_01LKDEMHDF@s?$AA@    00458c80     com_math.obj
 0002:00008c84       ??_C@_0BD@KIKKPBLA@cosHalfFov?5?$DO?$DN?50?40f?$AA@ 00458c84     com_math.obj
 0002:00008c98       ??_C@_0CA@DCHHGID@?4?4?2src?2universal?2com_memory?4cpp?$AA@ 00458c98     com_memory.obj
 0002:00008cb8       ??_C@_0BA@LLJLNNCI@?$CFs?6?7?$CIsize?$CJ?5?$DN?5?$CFi?$AA@ 00458cb8     com_memory.obj
 0002:00008cc8       ??_C@_0L@HICFBBGL@?$CIsize?5?$DO?50?$CJ?$AA@ 00458cc8     com_memory.obj
 0002:00008cd4       ??_C@_0M@EFMAJOHJ@?$CIsize?5?$DO?$DN?50?$CJ?$AA@ 00458cd4     com_memory.obj
 0002:00008ce0       ??_C@_0CH@LMDOGFBE@Z_VirtualCommit?3?5EXE_ERR_OUT_OF_@ 00458ce0     com_memory.obj
 0002:00008d08       ??_C@_0CO@OLLABMFG@Z_VirtualCommit?3?5failed?5to?5alloc@ 00458d08     com_memory.obj
 0002:00008d38       ??_C@_0CN@FOPPIANL@Z_VirtualCommit?3?5failed?5to?5alloc@ 00458d38     com_memory.obj
 0002:00008d68       ??_C@_0CA@JBBDHPBH@Z_Malloc?3?5EXE_ERR_OUT_OF_MEMORY?$AA@ 00458d68     com_memory.obj
 0002:00008d88       ??_C@_0CH@BDBMLLGA@Z_Malloc?3?5failed?5to?5allocate?5?$CFd?5@ 00458d88     com_memory.obj
 0002:00008db0       ??_C@_0CG@JAPGNPAG@Z_Malloc?3?5failed?5to?5allocate?5?$CFd?5@ 00458db0     com_memory.obj
 0002:00008dd8       ??_C@_0BH@DBKAOKIB@type?5?$DN?$DN?5fileData?9?$DOtype?$AA@ 00458dd8     com_memory.obj
 0002:00008df0       ??_C@_0DC@DJNAKKGP@?$CBHunk_FindDataForFileInternal?$CI?5t@ 00458df0     com_memory.obj
 0002:00008e24       ??_C@_0BJ@FHANHABJ@?$CB?$CI?$CI?$CIpsize_int?$CJbuf?$CJ?5?$CG?515?$CJ?$AA@ 00458e24     com_memory.obj
 0002:00008e40       ??_C@_0GL@HNPNOHJI@Hunk_AllocateTempMemory?3?5failed?5@ 00458e40     com_memory.obj
 0002:00008eb0       ??_C@_0EJ@LAIHKODD@hdr?5?$DN?$DN?5?$CIvoid?5?$CK?$CJ?$CI?5s_hunkData?5?$CL?5?$CI?$CI@ 00458eb0     com_memory.obj
 0002:00008efc       ??_C@_0BP@DFPHFPJG@Hunk_FreeTempMemory?3?5bad?5magic?$AA@ 00458efc     com_memory.obj
 0002:00008f1c       ??_C@_0M@MGGFEJKN@?$CBuser?9?$DOnext?$AA@ 00458f1c     com_memory.obj
 0002:00008f28       ??_C@_0BF@GMGLBPNA@?$CFs?6?7?$CIuser?9?$DOpos?$CJ?5?$DN?5?$CFi?$AA@ 00458f28     com_memory.obj
 0002:00008f40       ??_C@_0BE@EBKBEDHA@?$CI?$CB?$CIuser?9?$DOpos?5?$CG?531?$CJ?$CJ?$AA@ 00458f40     com_memory.obj
 0002:00008f54       ??_C@_0BD@GDJDCBLH@?$CFs?6?7?$CImaxSize?$CJ?5?$DN?5?$CFi?$AA@ 00458f54     com_memory.obj
 0002:00008f68       ??_C@_0BK@HFLOBEGK@?$CI?$CB?$CImaxSize?5?$CF?5?$CI4?5?$CK?51024?$CJ?$CJ?$CJ?$AA@ 00458f68     com_memory.obj
 0002:00008f84       ??_C@_0BH@BAHOOODF@range?5?$CF?5PAGE_SIZE?5?$DN?$DN?50?$AA@ 00458f84     com_memory.obj
 0002:00008f9c       ??_C@_09EAKGNJEF@range?5?$DO?50?$AA@ 00458f9c     com_memory.obj
 0002:00008fa8       ??_C@_0BO@JKCLDONJ@Hunk_UserAlloc?3?5out?5of?5memory?$AA@ 00458fa8     com_memory.obj
 0002:00008fc8       ??_C@_0CA@DNDENBCG@alignment?5?$DM?$DN?5HUNK_MAX_ALIGNMENT?$AA@ 00458fc8     com_memory.obj
 0002:00008fe8       ??_C@_0BP@NPBIPNIB@?$CB?$CIalignment?5?$CG?5?$CIalignment?5?9?51?$CJ?$CJ?$AA@ 00458fe8     com_memory.obj
 0002:00009008       ??_C@_0EJ@GHNDLKLK@static_cast?$DM?5uint?5?$DO?$CI?5size?5?$CJ?5?$DM?$DN?5u@ 00459008     com_memory.obj
 0002:00009054       ??_C@_0BG@NIHDCIB@size?3?5?$CFd?0?5maxSize?3?5?$CFd?$AA@ 00459054     com_memory.obj
 0002:00009070       __real@405fe00000000000    00459070     com_pack.obj
 0002:00009078       __real@405fc00000000000    00459078     com_pack.obj
 0002:00009080       __real@40dfa04000000000    00459080     com_pack.obj
 0002:00009088       __real@c068000000000000    00459088     com_pack.obj
 0002:00009090       ??_C@_0P@OEFJIKHN@dest?5?$HM?$HM?5?$CBcount?$AA@ 00459090     com_shared.obj
 0002:000090a0       ??_C@_0CA@BGOCHGBF@?4?4?2src?2universal?2com_shared?4cpp?$AA@ 004590a0     com_shared.obj
 0002:000090c0       ??_C@_0O@BBBFHKPB@src?5?$HM?$HM?5?$CBcount?$AA@ 004590c0     com_shared.obj
 0002:000090d0       ??_C@_0BK@DGCEIJDO@?4?4?2src?2universal?2dvar?4cpp?$AA@ 004590d0     dvar.obj
 0002:000090ec       ??_C@_0BP@KAFCHEGF@null?5name?5in?5generateHashValue?$AA@ 004590ec     dvar.obj
 0002:0000910c       ??_C@_06ICGJLFIM@string?$AA@ 0045910c     dvar.obj
 0002:00009114       ??_C@_0BG@OGPIGLLJ@?$CFs?6?7?$CIdvar?9?$DOname?$CJ?5?$DN?5?$CFs?$AA@ 00459114     dvar.obj
 0002:0000912c       ??_C@_0L@EHEIPNCG@dvar?9?$DOname?$AA@ 0045912c     dvar.obj
 0002:00009138       ??_C@_04EPCHJMEM@dvar?$AA@ 00459138     dvar.obj
 0002:00009140       ??_C@_0BJ@FCJHGFGG@unhandled?5dvar?5type?5?8?$CFi?8?$AA@ 00459140     dvar.obj
 0002:0000915c       ??_C@_0P@ELGPKFNH@?$CIvalue?4string?$CJ?$AA@ 0045915c     dvar.obj
 0002:0000916c       ??_C@_0BJ@HJHIOFJI@?$CFs?6?7?$CIvalue?4integer?$CJ?5?$DN?5?$CFi?$AA@ 0045916c     dvar.obj
 0002:00009188       ??_C@_0GD@LIIGDGCP@?$CIvalue?4integer?5?$DO?$DN?50?5?$CG?$CG?5value?4int@ 00459188     dvar.obj
 0002:000091ec       ??_C@_01GBGANLPD@0?$AA@    004591ec     dvar.obj
 0002:000091f0       ??_C@_01HIHLOKLC@1?$AA@    004591f0     dvar.obj
 0002:000091f4       ??_C@_06LKIIGAOE@domain?$AA@ 004591f4     dvar.obj
 0002:00009200       ??_C@_0FN@BKAKGIPL@?$CIvalue?4integer?5?$DO?$DN?50?5?$CG?$CG?5value?4int@ 00459200     dvar.obj
 0002:00009260       ??_C@_0CJ@DBIGKGBC@domain?4integer?4min?5?$DM?$DN?5domain?4int@ 00459260     dvar.obj
 0002:0000928c       ??_C@_0DA@HDAJFMBP@value?4enabled?5?$DN?$DN?5true?5?$HM?$HM?5value?4e@ 0045928c     dvar.obj
 0002:000092bc       ??_C@_0BJ@NIHBPFGC@Domain?5is?5any?5?$CFiD?5vector?$AA@ 004592bc     dvar.obj
 0002:000092d8       ??_C@_0DH@JBDIMEJK@Domain?5is?5any?5?$CFiD?5vector?5with?5co@ 004592d8     dvar.obj
 0002:00009310       ??_C@_0DG@OKIIAFIK@Domain?5is?5any?5?$CFiD?5vector?5with?5co@ 00459310     dvar.obj
 0002:00009348       ??_C@_0DH@LHFOMPMC@Domain?5is?5any?5?$CFiD?5vector?5with?5co@ 00459348     dvar.obj
 0002:00009380       __real@c7efffffe0000000    00459380     dvar.obj
 0002:00009388       ??_C@_0DA@EDPENCAE@Domain?5is?5any?54?9component?5color?0@ 00459388     dvar.obj
 0002:000093b8       ??_C@_0L@GLNNLABI@?6?5?5?$CF2i?3?5?$CFs?$AA@ 004593b8     dvar.obj
 0002:000093c4       ??_C@_0CA@LCECGLBO@Domain?5is?5one?5of?5the?5following?3?$AA@ 004593c4     dvar.obj
 0002:000093e4       ??_C@_0BD@NKHNICIH@Domain?5is?5any?5text?$AA@ 004593e4     dvar.obj
 0002:000093f8       ??_C@_0BF@DJGLPFOI@Domain?5is?5any?5number?$AA@ 004593f8     dvar.obj
 0002:00009410       ??_C@_0CD@FNECBECO@Domain?5is?5any?5number?5?$CFg?5or?5small@ 00459410     dvar.obj
 0002:00009434       ??_C@_0CC@JMCPCEDO@Domain?5is?5any?5number?5?$CFg?5or?5bigge@ 00459434     dvar.obj
 0002:00009458       ??_C@_0CD@HLCEBPHG@Domain?5is?5any?5number?5from?5?$CFg?5to?5@ 00459458     dvar.obj
 0002:0000947c       ??_C@_0BG@PJGECJNL@Domain?5is?5any?5integer?$AA@ 0045947c     dvar.obj
 0002:00009494       ??_C@_0CE@JAHEGBGN@Domain?5is?5any?5integer?5?$CFi?5or?5smal@ 00459494     dvar.obj
 0002:000094b8       ??_C@_0CD@HNFMPEML@Domain?5is?5any?5integer?5?$CFi?5or?5bigg@ 004594b8     dvar.obj
 0002:000094dc       ??_C@_0CE@MHPNFJDJ@Domain?5is?5any?5integer?5from?5?$CFi?5to@ 004594dc     dvar.obj
 0002:00009500       ??_C@_0BB@FIKPMEEC@Domain?5is?50?5or?51?$AA@ 00459500     dvar.obj
 0002:00009514       ??_C@_0BB@JIINPMCJ@outBufferLen?5?$DO?50?$AA@ 00459514     dvar.obj
 0002:00009528       ??_C@_0M@CAJAIBHK@val1?4string?$AA@ 00459528     dvar.obj
 0002:00009534       ??_C@_0M@DHOLJFDJ@val0?4string?$AA@ 00459534     dvar.obj
 0002:00009540       ??_C@_0HF@CJKDDEIA@?$CIvalue?4string?5?$CB?$DN?5dvar?9?$DOcurrent?4s@ 00459540     dvar.obj
 0002:000095b8       ??_C@_0CF@MMBKLCAG@?$CFs?5will?5be?5changed?5upon?5restarti@ 004595b8     dvar.obj
 0002:000095e0       ??_C@_0BI@NNDBDFOI@?$CFs?5is?5cheat?5protected?4?6?$AA@ 004595e0     dvar.obj
 0002:000095f8       ??_C@_0BI@PGDNNHME@?$CFs?5is?5write?5protected?4?6?$AA@ 004595f8     dvar.obj
 0002:00009610       ??_C@_0BC@PCJCNELF@?$CFs?5is?5read?5only?4?6?$AA@ 00459610     dvar.obj
 0002:00009624       ??_C@_0DO@JPIJKJDG@?$CIDvar_ValueInDomain?$CI?5dvar?9?$DOtype?0@ 00459624     dvar.obj
 0002:00009664       ??_C@_0CJ@LMOCBLPO@?8?$CFs?8?5is?5not?5a?5valid?5value?5for?5dv@ 00459664     dvar.obj
 0002:00009690       ??_C@_0BG@HDHKGJBH@?$CFs?6?7?$CIdvar?9?$DOtype?$CJ?5?$DN?5?$CFi?$AA@ 00459690     dvar.obj
 0002:000096a8       ??_C@_0EB@DPOCIHAO@?$CIdvar?9?$DOtype?5?$DN?$DN?5DVAR_TYPE_STRING?5@ 004596a8     dvar.obj
 0002:000096ec       ??_C@_0CB@FKHFEKNE@?$CIdvar?9?$DOtype?5?$DN?$DN?5DVAR_TYPE_STRING?$CJ@ 004596ec     dvar.obj
 0002:00009710       ??_C@_0HG@NEENAMOC@?$CIdvar?9?$DOflags?5?$CG?5?$CIDVAR_CHANGEABLE_@ 00459710     dvar.obj
 0002:00009788       ??_C@_0BC@FHCNCPOJ@dvar?5?$CFs?0?5?$CFs?5?$CB?$DN?5?$CFs?$AA@ 00459788     dvar.obj
 0002:0000979c       ??_C@_0BE@NNICDDJP@?$CFs?6?7?$CIdvarName?$CJ?5?$DN?5?$CFs?$AA@ 0045979c     dvar.obj
 0002:000097b0       ??_C@_0BF@IAKDFGDC@?$CIdvar?9?$DOtype?5?$DN?$DN?5type?$CJ?$AA@ 004597b0     dvar.obj
 0002:000097c8       ??_C@_0BP@JLICEHAJ@dvar?9?$DOtype?5?$DN?$DN?5DVAR_TYPE_STRING?$AA@ 004597c8     dvar.obj
 0002:000097e8       ??_C@_0BB@OIODPLDK@dvar?5?$CFs?0?5type?5?$CFi?$AA@ 004597e8     dvar.obj
 0002:000097fc       ??_C@_0DE@IHGMBKJM@dvar?9?$DOtype?5?$DN?$DN?5type?5?$HM?$HM?5?$CIdvar?9?$DOfla@ 004597fc     dvar.obj
 0002:00009830       ??_C@_0N@PPCDBGEI@?$CFs?3?5?$CFi?5?$CB?$DN?5?$CFi?$AA@ 00459830     dvar.obj
 0002:00009840       ??_C@_08CFLBPJKK@dvarName?$AA@ 00459840     dvar.obj
 0002:0000984c       ??_C@_0CP@EOKEFEOK@Can?8t?5create?5dvar?5?8?$CFs?8?3?5?$CFi?5dvars@ 0045984c     dvar.obj
 0002:0000987c       ??_C@_0DK@MEEKNOPE@?$CI?$CIflags?5?$CG?5?$CI1?5?$DM?$DM?514?$CJ?$CJ?5?$HM?$HM?5CanKeepS@ 0045987c     dvar.obj
 0002:000098b8       ??_C@_0DH@HEPMAHHB@?$CI?$CIflags?5?$CG?5?$CI1?5?$DM?$DM?514?$CJ?$CJ?5?$HM?$HM?5CanKeepS@ 004598b8     dvar.obj
 0002:000098f0       ??_C@_0CM@IGMDBFHJ@newValue?4integer?5?$CB?$DN?5DVAR_INVALID@ 004598f0     dvar.obj
 0002:0000991c       ??_C@_0BG@LKJOFJMM@?$CFs?5doesn?8t?5include?5?$CFs?$AA@ 0045991c     dvar.obj
 0002:00009934       ??_C@_0O@ILLLAHAH@External?5Dvar?$AA@ 00459934     dvar.obj
 0002:00009944       ??_C@_09NFOPKLIK@sv_cheats?$AA@ 00459944     dvar.obj
 0002:00009950       ??_C@_02FDNJECIE@?$CB?$DN?$AA@ 00459950     q_parse.obj
 0002:00009954       ??_C@_02EGOFBIJA@?$DN?$DN?$AA@ 00459954     q_parse.obj
 0002:00009958       ??_C@_02EEKDKGMJ@?$DO?$DN?$AA@ 00459958     q_parse.obj
 0002:0000995c       ??_C@_02EHCHHCKH@?$DM?$DN?$AA@ 0045995c     q_parse.obj
 0002:00009960       ??_C@_02NONPIBCD@?$HM?$HM?$AA@ 00459960     q_parse.obj
 0002:00009964       ??_C@_02PPKAJPJL@?$CG?$CG?$AA@ 00459964     q_parse.obj
 0002:00009968       ??_C@_02BAABKJLB@?9?9?$AA@ 00459968     q_parse.obj
 0002:0000996c       ??_C@_02ECNGHCIF@?$CL?$CL?$AA@ 0045996c     q_parse.obj
 0002:00009970       ??_C@_02DHLNPPGH@?$HM?$DN?$AA@ 00459970     q_parse.obj
 0002:00009974       ??_C@_02FGJGFEAB@?$CG?$DN?$AA@ 00459974     q_parse.obj
 0002:00009978       ??_C@_02FJEHGPIO@?1?$DN?$AA@ 00459978     q_parse.obj
 0002:0000997c       ??_C@_02FPIMKNGF@?$CK?$DN?$AA@ 0045997c     q_parse.obj
 0002:00009980       ??_C@_02FKMDLLOA@?9?$DN?$AA@ 00459980     q_parse.obj
 0002:00009984       ??_C@_02FOEOMHFC@?$CL?$DN?$AA@ 00459984     q_parse.obj
 0002:00009988       ??_C@_0DM@GBHCJKLB@Com_BeginParseSession?3?5session?5o@ 00459988     q_parse.obj
 0002:000099c4       ??_C@_07PCLGGPFP@?$CFi?4?5?$CFs?6?$AA@ 004599c4     q_parse.obj
 0002:000099cc       ??_C@_0BC@BAOBNCLH@Already?5parsing?3?6?$AA@ 004599cc     q_parse.obj
 0002:000099e0       ??_C@_0CH@IAJBGCPA@Com_EndParseSession?3?5session?5und@ 004599e0     q_parse.obj
 0002:00009a08       ??_C@_0BN@CPMOGBCN@?4?4?2src?2universal?2q_parse?4cpp?$AA@ 00459a08     q_parse.obj
 0002:00009a28       ??_C@_06BJNFFCJK@data_p?$AA@ 00459a28     q_parse.obj
 0002:00009a30       ?colorBlack@@3QBMB         00459a30     q_shared.obj
 0002:00009a40       ?colorRed@@3QBMB           00459a40     q_shared.obj
 0002:00009a50       ?colorGreen@@3QBMB         00459a50     q_shared.obj
 0002:00009a60       ?colorLtGreen@@3QBMB       00459a60     q_shared.obj
 0002:00009a70       ?colorBlue@@3QBMB          00459a70     q_shared.obj
 0002:00009a80       ?colorLtBlue@@3QBMB        00459a80     q_shared.obj
 0002:00009a90       ?colorYellow@@3QBMB        00459a90     q_shared.obj
 0002:00009aa0       ?colorLtYellow@@3QBMB      00459aa0     q_shared.obj
 0002:00009ab0       ?colorMdYellow@@3QBMB      00459ab0     q_shared.obj
 0002:00009ac0       ?colorMagenta@@3QBMB       00459ac0     q_shared.obj
 0002:00009ad0       ?colorCyan@@3QBMB          00459ad0     q_shared.obj
 0002:00009ae0       ?colorLtCyan@@3QBMB        00459ae0     q_shared.obj
 0002:00009af0       ?colorMdCyan@@3QBMB        00459af0     q_shared.obj
 0002:00009b00       ?colorDkCyan@@3QBMB        00459b00     q_shared.obj
 0002:00009b10       ?colorWhite@@3QBMB         00459b10     q_shared.obj
 0002:00009b20       ?colorLtGrey@@3QBMB        00459b20     q_shared.obj
 0002:00009b30       ?colorMdGrey@@3QBMB        00459b30     q_shared.obj
 0002:00009b40       ?colorDkGrey@@3QBMB        00459b40     q_shared.obj
 0002:00009b50       ?colorOrange@@3QBMB        00459b50     q_shared.obj
 0002:00009b60       ?colorLtOrange@@3QBMB      00459b60     q_shared.obj
 0002:00009b70       ?colorWhiteFaded@@3QBMB    00459b70     q_shared.obj
 0002:00009b80       ?colorGreenFaded@@3QBMB    00459b80     q_shared.obj
 0002:00009b90       ?colorRedFaded@@3QBMB      00459b90     q_shared.obj
 0002:00009ba0       ??_C@_0CP@POBDMCKP@filepath?5?8?$CFs?$CFs?$CFs?8?5is?5longer?5than@ 00459ba0     q_shared.obj
 0002:00009bd0       ??_C@_0BB@BKMFCFOH@maxCharCount?5?$DO?50?$AA@ 00459bd0     q_shared.obj
 0002:00009be4       ??_C@_09ODADEDNA@extension?$AA@ 00459be4     q_shared.obj
 0002:00009bf0       ??_C@_0BO@BKNDJFIA@?4?4?2src?2universal?2q_shared?4cpp?$AA@ 00459bf0     q_shared.obj
 0002:00009c10       ??_C@_06MIMEAMHG@folder?$AA@ 00459c10     q_shared.obj
 0002:00009c18       ??_C@_0BE@HEJCAPNF@?$CFs?6?7?$CIdestsize?$CJ?5?$DN?5?$CFi?$AA@ 00459c18     q_shared.obj
 0002:00009c2c       ??_C@_0BA@EJDDFLEF@?$CIdestsize?5?$DO?$DN?51?$CJ?$AA@ 00459c2c     q_shared.obj
 0002:00009c3c       ??_C@_04EEHDLEKF@dest?$AA@ 00459c3c     q_shared.obj
 0002:00009c44       ??_C@_03LOJEKLML@src?$AA@  00459c44     q_shared.obj
 0002:00009c48       ??_C@_06DAHFIGOC@substr?$AA@ 00459c48     q_shared.obj
 0002:00009c50       ??_C@_02IJEPMGBH@s0?$AA@   00459c50     q_shared.obj
 0002:00009c54       ??_C@_02JAFEPHFG@s1?$AA@   00459c54     q_shared.obj
 0002:00009c58       ??_C@_04HEFNBAFD@wild?$AA@ 00459c58     q_shared.obj
 0002:00009c60       ??_C@_0CN@PKGLJABL@Attempted?5to?5overrun?5string?5in?5c@ 00459c60     q_shared.obj
 0002:00009c90       ??_C@_0L@BACNCGBI@pos?5?$CB?$DN?5out?$AA@ 00459c90     q_shared.obj
 0002:00009c9c       ??_C@_0L@BEGHPFFF@dir?5?$CB?$DN?5out?$AA@ 00459c9c     q_shared.obj
 0002:00009ca8       ??_C@_06CBAMAPOB@xmodel?$AA@ 00459ca8     q_shared.obj
 0002:00009cb0       ??_C@_05BMGBEOOC@?$CFs?2?$CFs?$AA@ 00459cb0     win_common.obj
 0002:00009cb8       ??_C@_04EDLLLMBI@?$CFs?2?$CK?$AA@ 00459cb8     win_common.obj
 0002:00009cc0       ??_C@_03KOLNILKF@CVS?$AA@  00459cc0     win_common.obj
 0002:00009cc4       ??_C@_02DJGKEECL@?4?4?$AA@ 00459cc4     win_common.obj
 0002:00009cc8       ??_C@_01LFCBOECM@?4?$AA@   00459cc8     win_common.obj
 0002:00009ccc       ??_C@_07PHOBPKGE@?$CFs?2?$CFs?2?$CK?$AA@ 00459ccc     win_common.obj
 0002:00009cd4       ??_C@_04MINFEJHE@?$CK?4?$CFs?$AA@ 00459cd4     win_common.obj
 0002:00009cdc       ??_C@_07HMIPAPAI@?$CFs?2?$CK?4?$CFs?$AA@ 00459cdc     win_common.obj
 0002:00009ce4       ??_C@_0O@MILOEBGG@Sys_ListFiles?$AA@ 00459ce4     win_common.obj
 0002:00009cf4       ??_C@_05DOIEBMOI@1?41?44?$AA@ 00459cf4     compress.obj
 0002:00009d00       _deflate_copyright         00459d00     deflate.obj
 0002:00009db0       ??_C@_0BG@NNGPIFOB@?4?4?2src?2zlib?2deflate?4c?$AA@ 00459db0     deflate.obj
 0002:00009dc8       ??_C@_0BE@PAIFPEOE@?$CB?$CIs?9?$DOhash_size?5?$CF?54?$CJ?$AA@ 00459dc8     deflate.obj
 0002:00009e2c       ??_C@_0BK@BMMPFBBH@invalid?5bit?5length?5repeat?$AA@ 00459e2c     infblock.obj
 0002:00009e48       ??_C@_0CE@GMIGFPBB@too?5many?5length?5or?5distance?5symb@ 00459e48     infblock.obj
 0002:00009e6c       ??_C@_0BN@LGAADGOK@invalid?5stored?5block?5lengths?$AA@ 00459e6c     infblock.obj
 0002:00009e8c       ??_C@_0BD@PJCBIDD@invalid?5block?5type?$AA@ 00459e8c     infblock.obj
 0002:00009ea0       ??_C@_0BM@FFFLPBBC@invalid?5literal?1length?5code?$AA@ 00459ea0     infcodes.obj
 0002:00009ebc       ??_C@_0BG@LBKINIKP@invalid?5distance?5code?$AA@ 00459ebc     infcodes.obj
 0002:00009ed8       ??_C@_0BA@MOKMMFOD@need?5dictionary?$AA@ 00459ed8     inflate.obj
 0002:00009ee8       ??_C@_0BF@MEIGEHBE@incorrect?5data?5check?$AA@ 00459ee8     inflate.obj
 0002:00009f00       ??_C@_0BH@LIBMMIGA@incorrect?5header?5check?$AA@ 00459f00     inflate.obj
 0002:00009f18       ??_C@_0BE@EMOGCLGO@invalid?5window?5size?$AA@ 00459f18     inflate.obj
 0002:00009f2c       ??_C@_0BL@IHKGDAEE@unknown?5compression?5method?$AA@ 00459f2c     inflate.obj
 0002:00009f48       _z_1_1_4_inflate_copyright 00459f48     inftrees.obj
 0002:0000a168       ??_C@_0CE@LOHAHEGK@incomplete?5dynamic?5bit?5lengths?5t@ 0045a168     inftrees.obj
 0002:0000a18c       ??_C@_0CI@CGMOPDPD@oversubscribed?5dynamic?5bit?5lengt@ 0045a18c     inftrees.obj
 0002:0000a1b4       ??_C@_0BP@NEEEJJNA@incomplete?5literal?1length?5tree?$AA@ 0045a1b4     inftrees.obj
 0002:0000a1d4       ??_C@_0CD@GJIDGCKE@oversubscribed?5literal?1length?5tr@ 0045a1d4     inftrees.obj
 0002:0000a1f8       ??_C@_0CB@KPKKKLFO@empty?5distance?5tree?5with?5lengths@ 0045a1f8     inftrees.obj
 0002:0000a21c       ??_C@_0BJ@CBCPDPJF@incomplete?5distance?5tree?$AA@ 0045a21c     inftrees.obj
 0002:0000a238       ??_C@_0BN@KBLCDIAI@oversubscribed?5distance?5tree?$AA@ 0045a238     inftrees.obj
 0002:0000a8a0       __dist_code                0045a8a0     trees.obj
 0002:0000aaa0       __length_code              0045aaa0     trees.obj
 0002:0000ac90       _unz_copyright             0045ac90     unzip.obj
 0002:0000acbc       ??_C@_0BF@CJFPCCEG@incompatible?5version?$AA@ 0045acbc     zutil.obj
 0002:0000acd4       ??_C@_0N@DFPGLBGC@buffer?5error?$AA@ 0045acd4     zutil.obj
 0002:0000ace4       ??_C@_0BE@OGGJBMCE@insufficient?5memory?$AA@ 0045ace4     zutil.obj
 0002:0000acf8       ??_C@_0L@HAHMBNLP@data?5error?$AA@ 0045acf8     zutil.obj
 0002:0000ad04       ??_C@_0N@MKKNPMJD@stream?5error?$AA@ 0045ad04     zutil.obj
 0002:0000ad14       ??_C@_0L@KIJFAKBJ@file?5error?$AA@ 0045ad14     zutil.obj
 0002:0000ad20       ??_C@_0L@FNAOCBOG@stream?5end?$AA@ 0045ad20     zutil.obj
 0002:00016d30       ??_C@_0BA@EIIIKGFH@decode?9?$DObit?5?$DM?58?$AA@ 00466d30     r_image_wavelet.obj
 0002:00016d40       ??_C@_0CD@LBGHHFFF@?4?4?2src?2gfx_d3d?2r_image_wavelet?4c@ 00466d40     r_image_wavelet.obj
 0002:00016d64       ??_C@_0BP@NNBFJBAI@bitCount?5?$DO?50?5?$CG?$CG?5bitCount?5?$DM?$DN?516?$AA@ 00466d64     r_image_wavelet.obj
 0002:00016d84       ??_C@_0CJ@CHKPFPGP@?$CI1?5?$DM?$DM?5?$CIbitCount?5?9?51?$CJ?$CJ?5?9?51?5?$DM?5bias@ 00466d84     r_image_wavelet.obj
 0002:00016db0       ??_C@_0CE@CDCKMOHH@?$CI1?5?$DM?$DM?5bitCount?$CJ?5?9?51?5?$DO?$DN?5bias?5?$CK?52?5@ 00466db0     r_image_wavelet.obj
 0002:00016dd4       ??_C@_09PADJBCAI@size?5?$DO?$DN?51?$AA@ 00466dd4     r_image_wavelet.obj
 0002:00016de0       ??_C@_0CK@NOOODFJK@dst?5?$CL?5stride?5?$CL?5dstBpp?5?$DM?$DN?5src?5?$HM?$HM?5@ 00466de0     r_image_wavelet.obj
 0002:00016e0c       ??_C@_0BG@INFPJNOF@decode?9?$DOmipLevel?5?$DO?$DN?50?$AA@ 00466e0c     r_image_wavelet.obj
 0002:00016e28       ??_C@_0EP@DNIJLFHL@decode?9?$DObpp?5?$DN?$DN?5decode?9?$DOchannels?5@ 00466e28     r_image_wavelet.obj
 0002:00016e78       ??_C@_0CO@GHHALLDK@decode?9?$DObpp?5not?5in?5?$FL1?0?54?$FN?6?7?$CFi?5no@ 00466e78     r_image_wavelet.obj
 0002:00016ea8       ??_C@_0CB@MLKLCGDJ@?4?4?2src?2gfx_d3d?2r_imagedecode?4cpp@ 00466ea8     r_imagedecode.obj
 0002:00016ecc       ??_C@_0P@COCEBHEJ@unhandled?5case?$AA@ 00466ecc     r_imagedecode.obj
 0002:00016edc       ??_C@_0BO@DMBADILH@imageFile?9?$DOdimensions?$FL2?$FN?5?$DN?$DN?51?$AA@ 00466edc     r_imagedecode.obj
 0002:00016efc       ??_C@_09FOBICKKB@imageFile?$AA@ 00466efc     r_imagedecode.obj
 0002:00016f08       ??_C@_05NGOMGBBD@image?$AA@ 00466f08     r_imagedecode.obj
 0002:00016f10       __real@4065400000000000    00466f10     r_imagedecode.obj
 0002:00016f18       __real@4055400000000000    00466f18     r_imagedecode.obj
 0002:00016f20       __real@3fc99999a0000000    00466f20     r_imagedecode.obj
 0002:00016f28       __real@3fc24924a0000000    00466f28     r_imagedecode.obj
 0002:00016f30       ??_C@_0EB@KLKANEOL@bytesPerBlock?5?$DN?$DN?5?$CIimageFile?9?$DOfor@ 00466f30     r_imagedecode.obj
 0002:00016f74       ??_C@_0BI@MBMAEMMF@image?5?8?$CFs?8?5is?5not?5valid?$AA@ 00466f74     r_imagedecode.obj
 0002:00016f8c       ??_C@_0BG@NLKIPHHM@image?5?8?$CFs?8?5is?5missing?$AA@ 00466f8c     r_imagedecode.obj
 0002:00016fa4       ??_C@_07BPPBCINE@images?1?$AA@ 00466fa4     r_imagedecode.obj
 0002:00016fac       ??_C@_04OEIDIPDF@?4iwi?$AA@ 00466fac     r_imagedecode.obj
 0002:00016fb4       ??_C@_09KKBOCDLI@imageName?$AA@ 00466fb4     r_imagedecode.obj
 0002:00016fc0       ??_C@_09KJBNCLDG@lights?1?$CFs?$AA@ 00466fc0     r_light_load_obj.obj
 0002:00016fcc       ??_C@_0CE@PDGOGABI@?4?4?2src?2gfx_d3d?2r_light_load_obj?4@ 00466fcc     r_light_load_obj.obj
 0002:00016ff0       ??_C@_0BO@JNJIDGHB@?4?4?2src?2gfx_d3d?2r_xsurface?4cpp?$AA@ 00466ff0     r_xsurface.obj
 0002:00017010       ??_C@_0BN@OFGLBEGC@?$CIsurface?9?$DOtriCount?5?$CG?51?$CJ?5?$DN?$DN?50?$AA@ 00467010     r_xsurface.obj
 0002:00017030       ??_C@_0DE@MHOOLHJI@?$CIreinterpret_cast?$DM?5size_t?5?$DO?$CI?5dst@ 00467030     r_xsurface.obj
 0002:00017064       ??_C@_0DN@CPMEDEAG@?$CIreinterpret_cast?$DM?5size_t?5?$DO?$CI?5sur@ 00467064     r_xsurface.obj
 0002:000170a4       ??_C@_06FLKMDPOH@verts0?$AA@ 004670a4     r_xsurface.obj
 0002:000170ac       ??_C@_09MANBFGEA@vertCount?$AA@ 004670ac     r_xsurface.obj
 0002:000170b8       ??_C@_0N@OAILBFO@gravityScale?$AA@ 004670b8     physpreset_load_obj.obj
 0002:000170c8       ??_C@_08FPBAEICA@canFloat?$AA@ 004670c8     physpreset_load_obj.obj
 0002:000170d4       ??_C@_0BF@CMCNKFOA@piecesUpwardVelocity?$AA@ 004670d4     physpreset_load_obj.obj
 0002:000170ec       ??_C@_0BF@CMHBADNJ@piecesSpreadFraction?$AA@ 004670ec     physpreset_load_obj.obj
 0002:00017104       ??_C@_0P@IJHMODCM@sndAliasPrefix?$AA@ 00467104     physpreset_load_obj.obj
 0002:00017114       ??_C@_0BE@ELEECIII@explosiveForceScale?$AA@ 00467114     physpreset_load_obj.obj
 0002:00017128       ??_C@_0BB@GIHOGPFN@bulletForceScale?$AA@ 00467128     physpreset_load_obj.obj
 0002:0001713c       ??_C@_0BD@KLMCIBBL@isFrictionInfinity?$AA@ 0046713c     physpreset_load_obj.obj
 0002:00017150       ??_C@_08LKDNMFOC@friction?$AA@ 00467150     physpreset_load_obj.obj
 0002:0001715c       ??_C@_06DPMIMFNG@bounce?$AA@ 0046715c     physpreset_load_obj.obj
 0002:00017164       ??_C@_04IJEANHEE@mass?$AA@ 00467164     physpreset_load_obj.obj
 0002:0001716c       __FPinit                   0046716c     LIBCMT:fpinit.obj
 0002:00017170       __FPmtinit                 00467170     LIBCMT:fpinit.obj
 0002:00017174       __FPmtterm                 00467174     LIBCMT:fpinit.obj
 0002:00017178       ??_C@_0P@MIGLKIOC@CorExitProcess?$AA@ 00467178     LIBCMT:crt0dat.obj
 0002:00017188       ??_C@_0M@MBOPBNBK@mscoree?4dll?$AA@ 00467188     LIBCMT:crt0dat.obj
 0002:00017198       ??_7type_info@@6B@         00467198     LIBCMT:typinfo.obj
 0002:0001723c       ??_7exception@std@@6B@     0046723c     LIBCMT:stdexcpt.obj
 0002:00017244       ??_C@_0BC@EOODALEL@Unknown?5exception?$AA@ 00467244     LIBCMT:stdexcpt.obj
 0002:00017278       ??_C@_05KLBDPFGC@e?$CL000?$AA@ 00467278     LIBCMT:cvt.obj
 0002:00017280       __real@4150017ec0000000    00467280     LIBCMT:testfdiv.obj
 0002:00017288       __real@4147ffff80000000    00467288     LIBCMT:testfdiv.obj
 0002:00017290       ??_C@_0BK@NHEOCAHP@IsProcessorFeaturePresent?$AA@ 00467290     LIBCMT:testfdiv.obj
 0002:000172ac       ??_C@_08CPNIBGIE@KERNEL32?$AA@ 004672ac     LIBCMT:testfdiv.obj
 0002:00017338       ??_C@_01NEMOKFLO@?$DN?$AA@ 00467338     LIBCMT:setlocal.obj
 0002:0001733c       ??_C@_07EPKMNAGK@?4mixcrt?$AA@ 0046733c     LIBCMT:tidtable.obj
 0002:00017344       ??_C@_0O@NLDKAIKN@EncodePointer?$AA@ 00467344     LIBCMT:tidtable.obj
 0002:00017354       ??_C@_0N@NHGLKGEC@KERNEL32?4DLL?$AA@ 00467354     LIBCMT:tidtable.obj
 0002:00017364       ??_C@_0O@KBPMFGHI@DecodePointer?$AA@ 00467364     LIBCMT:tidtable.obj
 0002:00017374       ??_C@_07PEJMOBNF@FlsFree?$AA@ 00467374     LIBCMT:tidtable.obj
 0002:0001737c       ??_C@_0M@JCPCPOEF@FlsSetValue?$AA@ 0046737c     LIBCMT:tidtable.obj
 0002:00017388       ??_C@_0M@GDNOONDI@FlsGetValue?$AA@ 00467388     LIBCMT:tidtable.obj
 0002:00017394       ??_C@_08KNHFBNJ@FlsAlloc?$AA@ 00467394     LIBCMT:tidtable.obj
 0002:000173a8       ??_C@_0P@GGKDKEEG@runtime?5error?5?$AA@ 004673a8     LIBCMT:crt0msg.obj
 0002:000173b8       ??_C@_02PCIJFNDE@?$AN?6?$AA@ 004673b8     LIBCMT:crt0msg.obj
 0002:000173bc       ??_C@_0O@MJNIPGOH@TLOSS?5error?$AN?6?$AA@ 004673bc     LIBCMT:crt0msg.obj
 0002:000173cc       ??_C@_0N@BONNPDHF@SING?5error?$AN?6?$AA@ 004673cc     LIBCMT:crt0msg.obj
 0002:000173dc       ??_C@_0P@MBDAJNE@DOMAIN?5error?$AN?6?$AA@ 004673dc     LIBCMT:crt0msg.obj
 0002:000173f0       ??_C@_0JL@DFDOOABL@R6034?$AN?6An?5application?5has?5made?5a@ 004673f0     LIBCMT:crt0msg.obj
 0002:00017490       ??_C@_0PH@EPAFIJ@R6033?$AN?6?9?5Attempt?5to?5use?5MSIL?5cod@ 00467490     LIBCMT:crt0msg.obj
 0002:00017588       ??_C@_0DD@BKEEABMM@R6032?$AN?6?9?5not?5enough?5space?5for?5lo@ 00467588     LIBCMT:crt0msg.obj
 0002:000175c0       ??_C@_0GD@OFKILIED@R6031?$AN?6?9?5Attempt?5to?5initialize?5t@ 004675c0     LIBCMT:crt0msg.obj
 0002:00017624       ??_C@_0BP@LPMHJOKI@R6030?$AN?6?9?5CRT?5not?5initialized?$AN?6?$AA@ 00467624     LIBCMT:crt0msg.obj
 0002:00017644       ??_C@_0CF@KJDAIALP@R6028?$AN?6?9?5unable?5to?5initialize?5he@ 00467644     LIBCMT:crt0msg.obj
 0002:0001766c       ??_C@_0DF@GAKBPDFP@R6027?$AN?6?9?5not?5enough?5space?5for?5lo@ 0046766c     LIBCMT:crt0msg.obj
 0002:000176a4       ??_C@_0DF@IBLNNAIG@R6026?$AN?6?9?5not?5enough?5space?5for?5st@ 004676a4     LIBCMT:crt0msg.obj
 0002:000176dc       ??_C@_0CG@IOHKGFNJ@R6025?$AN?6?9?5pure?5virtual?5function?5c@ 004676dc     LIBCMT:crt0msg.obj
 0002:00017704       ??_C@_0DF@JIJJFJDC@R6024?$AN?6?9?5not?5enough?5space?5for?5_o@ 00467704     LIBCMT:crt0msg.obj
 0002:0001773c       ??_C@_0CJ@EGEJHFME@R6019?$AN?6?9?5unable?5to?5open?5console?5@ 0046773c     LIBCMT:crt0msg.obj
 0002:00017768       ??_C@_0CB@GNHNIELH@R6018?$AN?6?9?5unexpected?5heap?5error?$AN?6@ 00467768     LIBCMT:crt0msg.obj
 0002:0001778c       ??_C@_0CN@FOLDKNG@R6017?$AN?6?9?5unexpected?5multithread?5@ 0046778c     LIBCMT:crt0msg.obj
 0002:000177bc       ??_C@_0CM@FAHFJNHO@R6016?$AN?6?9?5not?5enough?5space?5for?5th@ 004677bc     LIBCMT:crt0msg.obj
 0002:000177e8       ??_C@_0JG@LBKMGKLD@?$AN?6This?5application?5has?5requested@ 004677e8     LIBCMT:crt0msg.obj
 0002:00017880       ??_C@_0CM@FLCNIPKK@R6009?$AN?6?9?5not?5enough?5space?5for?5en@ 00467880     LIBCMT:crt0msg.obj
 0002:000178ac       ??_C@_0CK@KMMJOAPP@R6008?$AN?6?9?5not?5enough?5space?5for?5ar@ 004678ac     LIBCMT:crt0msg.obj
 0002:000178d8       ??_C@_0CN@LEKKICBM@R6002?$AN?6?9?5floating?5point?5support?5@ 004678d8     LIBCMT:crt0msg.obj
 0002:00017908       ??_C@_0CF@GOGNBNAK@Microsoft?5Visual?5C?$CL?$CL?5Runtime?5Lib@ 00467908     LIBCMT:crt0msg.obj
 0002:00017930       ??_C@_02PHMGELLB@?6?6?$AA@ 00467930     LIBCMT:crt0msg.obj
 0002:00017934       ??_C@_03KHICJKCI@?4?4?4?$AA@ 00467934     LIBCMT:crt0msg.obj
 0002:00017938       ??_C@_0BH@DNAGHKFM@?$DMprogram?5name?5unknown?$DO?$AA@ 00467938     LIBCMT:crt0msg.obj
 0002:00017950       ??_C@_0BK@OFGJDLJJ@Runtime?5Error?$CB?6?6Program?3?5?$AA@ 00467950     LIBCMT:crt0msg.obj
 0002:0001796c       ??_C@_0CG@PKBDLMEO@InitializeCriticalSectionAndSpin@ 0046796c     LIBCMT:initcrit.obj
 0002:00017994       ??_C@_0N@MDJJJHMB@kernel32?4dll?$AA@ 00467994     LIBCMT:initcrit.obj
 0002:000179a4       ??_C@_1O@CEDCILHN@?$AA?$CI?$AAn?$AAu?$AAl?$AAl?$AA?$CJ?$AA?$AA@ 004679a4     LIBCMT:output.obj
 0002:000179b4       ??_C@_06OJHGLDPL@?$CInull?$CJ?$AA@ 004679b4     LIBCMT:output.obj
 0002:000179c0       ___lookuptable             004679c0     LIBCMT:output.obj
 0002:00017a40       ??_C@_0BG@KLEAJEFJ@Illegal?5byte?5sequence?$AA@ 00467a40     LIBCMT:syserr.obj
 0002:00017a58       ??_C@_0BE@ICMCHPHH@Directory?5not?5empty?$AA@ 00467a58     LIBCMT:syserr.obj
 0002:00017a6c       ??_C@_0BJ@IHEHINLI@Function?5not?5implemented?$AA@ 00467a6c     LIBCMT:syserr.obj
 0002:00017a88       ??_C@_0BD@CLHBCGPB@No?5locks?5available?$AA@ 00467a88     LIBCMT:syserr.obj
 0002:00017a9c       ??_C@_0BC@BEDIHIDK@Filename?5too?5long?$AA@ 00467a9c     LIBCMT:syserr.obj
 0002:00017ab0       ??_C@_0BK@JAEBMJJM@Resource?5deadlock?5avoided?$AA@ 00467ab0     LIBCMT:syserr.obj
 0002:00017acc       ??_C@_0BB@FCBJFCAJ@Result?5too?5large?$AA@ 00467acc     LIBCMT:syserr.obj
 0002:00017ae0       ??_C@_0N@MMJPGLJK@Domain?5error?$AA@ 00467ae0     LIBCMT:syserr.obj
 0002:00017af0       ??_C@_0M@LHEPIIOM@Broken?5pipe?$AA@ 00467af0     LIBCMT:syserr.obj
 0002:00017afc       ??_C@_0P@PKCJJLLM@Too?5many?5links?$AA@ 00467afc     LIBCMT:syserr.obj
 0002:00017b0c       ??_C@_0BG@DDBFNKBH@Read?9only?5file?5system?$AA@ 00467b0c     LIBCMT:syserr.obj
 0002:00017b24       ??_C@_0N@FEHLOILP@Invalid?5seek?$AA@ 00467b24     LIBCMT:syserr.obj
 0002:00017b34       ??_C@_0BI@FEALHKLD@No?5space?5left?5on?5device?$AA@ 00467b34     LIBCMT:syserr.obj
 0002:00017b4c       ??_C@_0P@LFMMIPAE@File?5too?5large?$AA@ 00467b4c     LIBCMT:syserr.obj
 0002:00017b5c       ??_C@_0CE@ONOKNLPF@Inappropriate?5I?1O?5control?5operat@ 00467b5c     LIBCMT:syserr.obj
 0002:00017b80       ??_C@_0BE@INBJMKGG@Too?5many?5open?5files?$AA@ 00467b80     LIBCMT:syserr.obj
 0002:00017b94       ??_C@_0BO@IIFBODJE@Too?5many?5open?5files?5in?5system?$AA@ 00467b94     LIBCMT:syserr.obj
 0002:00017bb4       ??_C@_0BB@HMGGCEBG@Invalid?5argument?$AA@ 00467bb4     LIBCMT:syserr.obj
 0002:00017bc8       ??_C@_0P@NDHGCGKE@Is?5a?5directory?$AA@ 00467bc8     LIBCMT:syserr.obj
 0002:00017bd8       ??_C@_0BA@CJBACOOL@Not?5a?5directory?$AA@ 00467bd8     LIBCMT:syserr.obj
 0002:00017be8       ??_C@_0P@NLEIANHE@No?5such?5device?$AA@ 00467be8     LIBCMT:syserr.obj
 0002:00017bf8       ??_C@_0O@OAMDNOCP@Improper?5link?$AA@ 00467bf8     LIBCMT:syserr.obj
 0002:00017c08       ??_C@_0M@NAAJNNGH@File?5exists?$AA@ 00467c08     LIBCMT:syserr.obj
 0002:00017c14       ??_C@_0BA@BIBLIOEK@Resource?5device?$AA@ 00467c14     LIBCMT:syserr.obj
 0002:00017c24       ??_C@_0O@NIPGCINC@Unknown?5error?$AA@ 00467c24     LIBCMT:syserr.obj
 0002:00017c34       ??_C@_0M@LOEHLCJD@Bad?5address?$AA@ 00467c34     LIBCMT:syserr.obj
 0002:00017c40       ??_C@_0BC@HFNFNKAI@Permission?5denied?$AA@ 00467c40     LIBCMT:syserr.obj
 0002:00017c54       ??_C@_0BB@IMDKMPFB@Not?5enough?5space?$AA@ 00467c54     LIBCMT:syserr.obj
 0002:00017c68       ??_C@_0CB@EPFKGNAK@Resource?5temporarily?5unavailable@ 00467c68     LIBCMT:syserr.obj
 0002:00017c8c       ??_C@_0BD@LOHELEP@No?5child?5processes?$AA@ 00467c8c     LIBCMT:syserr.obj
 0002:00017ca0       ??_C@_0BE@NFGDDCEF@Bad?5file?5descriptor?$AA@ 00467ca0     LIBCMT:syserr.obj
 0002:00017cb4       ??_C@_0BC@HKPNECK@Exec?5format?5error?$AA@ 00467cb4     LIBCMT:syserr.obj
 0002:00017cc8       ??_C@_0BC@MFFGCDFL@Arg?5list?5too?5long?$AA@ 00467cc8     LIBCMT:syserr.obj
 0002:00017cdc       ??_C@_0BK@DPKMCKJ@No?5such?5device?5or?5address?$AA@ 00467cdc     LIBCMT:syserr.obj
 0002:00017cf8       ??_C@_0BD@KKNFOBBD@Input?1output?5error?$AA@ 00467cf8     LIBCMT:syserr.obj
 0002:00017d0c       ??_C@_0BK@FJBOAFDK@Interrupted?5function?5call?$AA@ 00467d0c     LIBCMT:syserr.obj
 0002:00017d28       ??_C@_0BA@FKIAIBGA@No?5such?5process?$AA@ 00467d28     LIBCMT:syserr.obj
 0002:00017d38       ??_C@_0BK@FMDHKPNF@No?5such?5file?5or?5directory?$AA@ 00467d38     LIBCMT:syserr.obj
 0002:00017d54       ??_C@_0BI@BJFCGOHL@Operation?5not?5permitted?$AA@ 00467d54     LIBCMT:syserr.obj
 0002:00017d6c       ??_C@_08INEPGKHH@No?5error?$AA@ 00467d6c     LIBCMT:syserr.obj
 0002:00017d78       ___lookuptable_s           00467d78     LIBCMT:outputs.obj
 0002:00017dd4       __pDestructExceptionObject 00467dd4     LIBCMT:frame.obj
 0002:00017ddc       ??_7bad_exception@std@@6B@ 00467ddc     LIBCMT:frame.obj
 0002:00017de4       ??_C@_0O@DPKOEFFH@bad?5exception?$AA@ 00467de4     LIBCMT:frame.obj
 0002:00019628       __DEFAULT_CW_in_mem        00469628     LIBCMT:common.obj
 0002:0001962a       __pi_by_2_to_61            0046962a     LIBCMT:common.obj
 0002:00019708       ??_C@_03IIINPABG@tan?$AA@  00469708     LIBCMT:libm_error.obj
 0002:0001970c       ??_C@_03LALBNOCG@cos?$AA@  0046970c     LIBCMT:libm_error.obj
 0002:00019710       ??_C@_03BLEJJJBH@sin?$AA@  00469710     LIBCMT:libm_error.obj
 0002:00019714       ??_C@_04EHEDPDJG@modf?$AA@ 00469714     LIBCMT:libm_error.obj
 0002:0001971c       ??_C@_05PBJFFIGL@floor?$AA@ 0046971c     LIBCMT:libm_error.obj
 0002:00019724       ??_C@_04GFPJNGEK@ceil?$AA@ 00469724     LIBCMT:libm_error.obj
 0002:0001972c       ??_C@_04MLLJIGOK@atan?$AA@ 0046972c     LIBCMT:libm_error.obj
 0002:00019734       ??_C@_05EOHGHCHD@exp10?$AA@ 00469734     LIBCMT:libm_error.obj
 0002:0001973c       ??_C@_04PDIFKINK@acos?$AA@ 0046973c     LIBCMT:libm_error.obj
 0002:00019744       ??_C@_04FIHNOPOL@asin?$AA@ 00469744     LIBCMT:libm_error.obj
 0002:0001974c       ??_C@_03MGHMBJCF@log?$AA@  0046974c     LIBCMT:libm_error.obj
 0002:00019750       ??_C@_05HGHHAHAP@log10?$AA@ 00469750     LIBCMT:libm_error.obj
 0002:00019758       ??_C@_03KHJOGHMM@exp?$AA@  00469758     LIBCMT:libm_error.obj
 0002:0001975c       ??_C@_03JGHBODFD@pow?$AA@  0046975c     LIBCMT:libm_error.obj
 0002:0001ec40       ??_C@_02CLFPBFFP@TZ?$AA@   0046ec40     LIBCMT:tzset.obj
 0002:0001ec44       ___dnames                  0046ec44     LIBCMT:timeset.obj
 0002:0001ec5c       ___mnames                  0046ec5c     LIBCMT:timeset.obj
 0002:0001ec88       ___newctype                0046ec88     LIBCMT:ctype.obj
 0002:0001ef88       __wctype                   0046ef88     LIBCMT:ctype.obj
 0002:0001f190       ___newclmap                0046f190     LIBCMT:ctype.obj
 0002:0001f310       ___newcumap                0046f310     LIBCMT:ctype.obj
 0002:0001f490       ??_C@_08JCCMCCIL@HH?3mm?3ss?$AA@ 0046f490     LIBCMT:strftime.obj
 0002:0001f49c       ??_C@_0BE@CKGJFCPC@dddd?0?5MMMM?5dd?0?5yyyy?$AA@ 0046f49c     LIBCMT:strftime.obj
 0002:0001f4b0       ??_C@_08BPBNCDIB@MM?1dd?1yy?$AA@ 0046f4b0     LIBCMT:strftime.obj
 0002:0001f4bc       ??_C@_02CJNFDJBF@PM?$AA@   0046f4bc     LIBCMT:strftime.obj
 0002:0001f4c0       ??_C@_02DEDBPAFC@AM?$AA@   0046f4c0     LIBCMT:strftime.obj
 0002:0001f4c4       ??_C@_08EDHMEBNP@December?$AA@ 0046f4c4     LIBCMT:strftime.obj
 0002:0001f4d0       ??_C@_08HCHEGEOA@November?$AA@ 0046f4d0     LIBCMT:strftime.obj
 0002:0001f4dc       ??_C@_07JJNFCEND@October?$AA@ 0046f4dc     LIBCMT:strftime.obj
 0002:0001f4e4       ??_C@_09BHHEALKD@September?$AA@ 0046f4e4     LIBCMT:strftime.obj
 0002:0001f4f0       ??_C@_06LBBHFDDG@August?$AA@ 0046f4f0     LIBCMT:strftime.obj
 0002:0001f4f8       ??_C@_04MIEPOIFP@July?$AA@ 0046f4f8     LIBCMT:strftime.obj
 0002:0001f500       ??_C@_04CNLMGBGM@June?$AA@ 0046f500     LIBCMT:strftime.obj
 0002:0001f508       ??_C@_05DMJDNLEJ@April?$AA@ 0046f508     LIBCMT:strftime.obj
 0002:0001f510       ??_C@_05HPCKOFNC@March?$AA@ 0046f510     LIBCMT:strftime.obj
 0002:0001f518       ??_C@_08GNJGEPFN@February?$AA@ 0046f518     LIBCMT:strftime.obj
 0002:0001f524       ??_C@_07CGJPFGJA@January?$AA@ 0046f524     LIBCMT:strftime.obj
 0002:0001f52c       ??_C@_03MKABNOCG@Dec?$AA@  0046f52c     LIBCMT:strftime.obj
 0002:0001f530       ??_C@_03JPJOFNIA@Nov?$AA@  0046f530     LIBCMT:strftime.obj
 0002:0001f534       ??_C@_03BMAOKBAD@Oct?$AA@  0046f534     LIBCMT:strftime.obj
 0002:0001f538       ??_C@_03GGCAPAJC@Sep?$AA@  0046f538     LIBCMT:strftime.obj
 0002:0001f53c       ??_C@_03IFJFEIGA@Aug?$AA@  0046f53c     LIBCMT:strftime.obj
 0002:0001f540       ??_C@_03LBGABGKK@Jul?$AA@  0046f540     LIBCMT:strftime.obj
 0002:0001f544       ??_C@_03IDFGHECI@Jun?$AA@  0046f544     LIBCMT:strftime.obj
 0002:0001f548       ??_C@_03CNMDKL@May?$AA@    0046f548     LIBCMT:strftime.obj
 0002:0001f54c       ??_C@_03LEOLGMJP@Apr?$AA@  0046f54c     LIBCMT:strftime.obj
 0002:0001f550       ??_C@_03ODNJBKGA@Mar?$AA@  0046f550     LIBCMT:strftime.obj
 0002:0001f554       ??_C@_03HJBDCHOM@Feb?$AA@  0046f554     LIBCMT:strftime.obj
 0002:0001f558       ??_C@_03JIHJHPIE@Jan?$AA@  0046f558     LIBCMT:strftime.obj
 0002:0001f55c       ??_C@_08INBOOONO@Saturday?$AA@ 0046f55c     LIBCMT:strftime.obj
 0002:0001f568       ??_C@_06JECMNKMI@Friday?$AA@ 0046f568     LIBCMT:strftime.obj
 0002:0001f570       ??_C@_08HACCIKIA@Thursday?$AA@ 0046f570     LIBCMT:strftime.obj
 0002:0001f57c       ??_C@_09DLIGFAKA@Wednesday?$AA@ 0046f57c     LIBCMT:strftime.obj
 0002:0001f588       ??_C@_07BAAGCFCM@Tuesday?$AA@ 0046f588     LIBCMT:strftime.obj
 0002:0001f590       ??_C@_06JLEDEDGH@Monday?$AA@ 0046f590     LIBCMT:strftime.obj
 0002:0001f598       ??_C@_06OOPIFAJ@Sunday?$AA@ 0046f598     LIBCMT:strftime.obj
 0002:0001f5a0       ??_C@_03FEFJNEK@Sat?$AA@   0046f5a0     LIBCMT:strftime.obj
 0002:0001f5a4       ??_C@_03IDIOELNC@Fri?$AA@  0046f5a4     LIBCMT:strftime.obj
 0002:0001f5a8       ??_C@_03IOFIKPDN@Thu?$AA@  0046f5a8     LIBCMT:strftime.obj
 0002:0001f5ac       ??_C@_03MHOMLAJA@Wed?$AA@  0046f5ac     LIBCMT:strftime.obj
 0002:0001f5b0       ??_C@_03NAGEINEP@Tue?$AA@  0046f5b0     LIBCMT:strftime.obj
 0002:0001f5b4       ??_C@_03PDAGKDH@Mon?$AA@   0046f5b4     LIBCMT:strftime.obj
 0002:0001f5b8       ??_C@_03KOEHGMDN@Sun?$AA@  0046f5b8     LIBCMT:strftime.obj
 0002:0001f5bc       ??_C@_0BI@DFKBFLJE@GetProcessWindowStation?$AA@ 0046f5bc     LIBCMT:crtmbox.obj
 0002:0001f5d4       ??_C@_0BK@CIDNPOGP@GetUserObjectInformationA?$AA@ 0046f5d4     LIBCMT:crtmbox.obj
 0002:0001f5f0       ??_C@_0BD@HHGDFDBJ@GetLastActivePopup?$AA@ 0046f5f0     LIBCMT:crtmbox.obj
 0002:0001f604       ??_C@_0BA@HNOPNCHB@GetActiveWindow?$AA@ 0046f604     LIBCMT:crtmbox.obj
 0002:0001f614       ??_C@_0M@CHKKJDAI@MessageBoxA?$AA@ 0046f614     LIBCMT:crtmbox.obj
 0002:0001f620       ??_C@_0L@NDEGIDAG@USER32?4DLL?$AA@ 0046f620     LIBCMT:crtmbox.obj
 0002:0001f62c       ??_C@_0BK@CFCOFLF@?5Complete?5Object?5Locator?8?$AA@ 0046f62c     LIBCMT:undname.obj
 0002:0001f648       ??_C@_0BN@MECKDCOJ@?5Class?5Hierarchy?5Descriptor?8?$AA@ 0046f648     LIBCMT:undname.obj
 0002:0001f668       ??_C@_0BD@LGICGFMM@?5Base?5Class?5Array?8?$AA@ 0046f668     LIBCMT:undname.obj
 0002:0001f67c       ??_C@_0BM@LDKODKLH@?5Base?5Class?5Descriptor?5at?5?$CI?$AA@ 0046f67c     LIBCMT:undname.obj
 0002:0001f698       ??_C@_0BC@DAFEJGAK@?5Type?5Descriptor?8?$AA@ 0046f698     LIBCMT:undname.obj
 0002:0001f6ac       ??_C@_0BM@PMGGMLDN@?$GAlocal?5static?5thread?5guard?8?$AA@ 0046f6ac     LIBCMT:undname.obj
 0002:0001f6c8       ??_C@_0CL@FGIJHLCE@?$GAmanaged?5vector?5copy?5constructor@ 0046f6c8     LIBCMT:undname.obj
 0002:0001f6f4       ??_C@_0CJ@GJELGAMM@?$GAvector?5vbase?5copy?5constructor?5i@ 0046f6f4     LIBCMT:undname.obj
 0002:0001f720       ??_C@_0CD@CGAJBKEJ@?$GAvector?5copy?5constructor?5iterato@ 0046f720     LIBCMT:undname.obj
 0002:0001f744       ??_C@_0CB@PDBIFEP@?$GAdynamic?5atexit?5destructor?5for?5?8@ 0046f744     LIBCMT:undname.obj
 0002:0001f768       ??_C@_0BL@CLIPGLGB@?$GAdynamic?5initializer?5for?5?8?$AA@ 0046f768     LIBCMT:undname.obj
 0002:0001f784       ??_C@_0CM@FCBBDIGB@?$GAeh?5vector?5vbase?5copy?5constructo@ 0046f784     LIBCMT:undname.obj
 0002:0001f7b0       ??_C@_0CG@HLDDJMAG@?$GAeh?5vector?5copy?5constructor?5iter@ 0046f7b0     LIBCMT:undname.obj
 0002:0001f7d8       ??_C@_0CF@IMGKMJNO@?$GAmanaged?5vector?5destructor?5itera@ 0046f7d8     LIBCMT:undname.obj
 0002:0001f800       ??_C@_0CG@CFDHKGGD@?$GAmanaged?5vector?5constructor?5iter@ 0046f800     LIBCMT:undname.obj
 0002:0001f828       ??_C@_0BN@CKNJLHMB@?$GAplacement?5delete?$FL?$FN?5closure?8?$AA@ 0046f828     LIBCMT:undname.obj
 0002:0001f848       ??_C@_0BL@CNOONJFP@?$GAplacement?5delete?5closure?8?$AA@ 0046f848     LIBCMT:undname.obj
 0002:0001f864       ??_C@_0P@HJKNJFNN@?$GAomni?5callsig?8?$AA@ 0046f864     LIBCMT:undname.obj
 0002:0001f874       ??_C@_09LBNFPBCA@?5delete?$FL?$FN?$AA@ 0046f874     LIBCMT:undname.obj
 0002:0001f880       ??_C@_06FHBGPFGH@?5new?$FL?$FN?$AA@ 0046f880     LIBCMT:undname.obj
 0002:0001f888       ??_C@_0CE@IIHCMGGL@?$GAlocal?5vftable?5constructor?5closu@ 0046f888     LIBCMT:undname.obj
 0002:0001f8ac       ??_C@_0BA@KKLDJDLB@?$GAlocal?5vftable?8?$AA@ 0046f8ac     LIBCMT:undname.obj
 0002:0001f8bc       ??_C@_05KHLCHHI@?$GARTTI?$AA@ 0046f8bc     LIBCMT:undname.obj
 0002:0001f8c4       ??_C@_03KLGMFNMG@?$GAEH?$AA@ 0046f8c4     LIBCMT:undname.obj
 0002:0001f8c8       ??_C@_0BA@KBCDOMBN@?$GAudt?5returning?8?$AA@ 0046f8c8     LIBCMT:undname.obj
 0002:0001f8d8       ??_C@_0BL@LLKPOHJI@?$GAcopy?5constructor?5closure?8?$AA@ 0046f8d8     LIBCMT:undname.obj
 0002:0001f8f4       ??_C@_0CH@OOJPLCPH@?$GAeh?5vector?5vbase?5constructor?5ite@ 0046f8f4     LIBCMT:undname.obj
 0002:0001f91c       ??_C@_0CA@GCEOPDGL@?$GAeh?5vector?5destructor?5iterator?8?$AA@ 0046f91c     LIBCMT:undname.obj
 0002:0001f93c       ??_C@_0CB@JONCMFFK@?$GAeh?5vector?5constructor?5iterator?8@ 0046f93c     LIBCMT:undname.obj
 0002:0001f960       ??_C@_0BL@NILFHHPC@?$GAvirtual?5displacement?5map?8?$AA@ 0046f960     LIBCMT:undname.obj
 0002:0001f97c       ??_C@_0CE@IKBNEHA@?$GAvector?5vbase?5constructor?5iterat@ 0046f97c     LIBCMT:undname.obj
 0002:0001f9a0       ??_C@_0BN@LFPFMEDL@?$GAvector?5destructor?5iterator?8?$AA@ 0046f9a0     LIBCMT:undname.obj
 0002:0001f9c0       ??_C@_0BO@PFGOCPJJ@?$GAvector?5constructor?5iterator?8?$AA@ 0046f9c0     LIBCMT:undname.obj
 0002:0001f9e0       ??_C@_0BN@IMDCHIKM@?$GAscalar?5deleting?5destructor?8?$AA@ 0046f9e0     LIBCMT:undname.obj
 0002:0001fa00       ??_C@_0BO@OBMKPJIG@?$GAdefault?5constructor?5closure?8?$AA@ 0046fa00     LIBCMT:undname.obj
 0002:0001fa20       ??_C@_0BN@DEGPLNFK@?$GAvector?5deleting?5destructor?8?$AA@ 0046fa20     LIBCMT:undname.obj
 0002:0001fa40       ??_C@_0BD@JDLKDPAB@?$GAvbase?5destructor?8?$AA@ 0046fa40     LIBCMT:undname.obj
 0002:0001fa54       ??_C@_08OBABFOLI@?$GAstring?8?$AA@ 0046fa54     LIBCMT:undname.obj
 0002:0001fa60       ??_C@_0BF@KDPPACIK@?$GAlocal?5static?5guard?8?$AA@ 0046fa60     LIBCMT:undname.obj
 0002:0001fa78       ??_C@_08LLFFHHDJ@?$GAtypeof?8?$AA@ 0046fa78     LIBCMT:undname.obj
 0002:0001fa84       ??_C@_07FEEIOKP@?$GAvcall?8?$AA@ 0046fa84     LIBCMT:undname.obj
 0002:0001fa8c       ??_C@_09BLBHBJP@?$GAvbtable?8?$AA@ 0046fa8c     LIBCMT:undname.obj
 0002:0001fa98       ??_C@_09IFPLHPGF@?$GAvftable?8?$AA@ 0046fa98     LIBCMT:undname.obj
 0002:0001faa4       ??_C@_02MHEGNOJ@?$FO?$DN?$AA@ 0046faa4     LIBCMT:undname.obj
 0002:0001faa8       ??_C@_03CDNPDDLA@?$DM?$DM?$DN?$AA@ 0046faa8     LIBCMT:undname.obj
 0002:0001faac       ??_C@_03IKFCCPFF@?$DO?$DO?$DN?$AA@ 0046faac     LIBCMT:undname.obj
 0002:0001fab0       ??_C@_02FENAOKFI@?$CF?$DN?$AA@ 0046fab0     LIBCMT:undname.obj
 0002:0001fab4       ??_C@_01DNKMNLPK@?$HM?$AA@ 0046fab4     LIBCMT:undname.obj
 0002:0001fab8       ??_C@_01JKBOJNNK@?$FO?$AA@ 0046fab8     LIBCMT:undname.obj
 0002:0001fabc       ??_C@_01PJKLJHI@?$HO?$AA@  0046fabc     LIBCMT:undname.obj
 0002:0001fac0       ??_C@_02HCKGKOFO@?$CI?$CJ?$AA@ 0046fac0     LIBCMT:undname.obj
 0002:0001fac4       ??_C@_01IHBHIGKO@?0?$AA@   0046fac4     LIBCMT:undname.obj
 0002:0001fac8       ??_C@_01PPODPGHN@?$DO?$AA@ 0046fac8     LIBCMT:undname.obj
 0002:0001facc       ??_C@_01MNNFJEPP@?$DM?$AA@ 0046facc     LIBCMT:undname.obj
 0002:0001fad0       ??_C@_01FGNFDNOH@?$CF?$AA@ 0046fad0     LIBCMT:undname.obj
 0002:0001fad4       ??_C@_03MNHNFDLC@?9?$DO?$CK?$AA@ 0046fad4     LIBCMT:undname.obj
 0002:0001fad8       ??_C@_01HNPIGOCE@?$CG?$AA@ 0046fad8     LIBCMT:undname.obj
 0002:0001fadc       ??_C@_01MIFGBAGJ@?$CL?$AA@ 0046fadc     LIBCMT:undname.obj
 0002:0001fae0       ??_C@_01JOAMLHOP@?9?$AA@   0046fae0     LIBCMT:undname.obj
 0002:0001fae4       ??_C@_01NBENCBCI@?$CK?$AA@ 0046fae4     LIBCMT:undname.obj
 0002:0001fae8       ??_C@_02HBOOOICD@?9?$DO?$AA@ 0046fae8     LIBCMT:undname.obj
 0002:0001faec       ??_C@_08LHJFAFGD@operator?$AA@ 0046faec     LIBCMT:undname.obj
 0002:0001faf8       ??_C@_02GPECMEKF@?$FL?$FN?$AA@ 0046faf8     LIBCMT:undname.obj
 0002:0001fafc       ??_C@_01DCLJPIOD@?$CB?$AA@ 0046fafc     LIBCMT:undname.obj
 0002:0001fb00       ??_C@_02FODMEDOG@?$DM?$DM?$AA@ 0046fb00     LIBCMT:undname.obj
 0002:0001fb04       ??_C@_02GPIOPFAK@?$DO?$DO?$AA@ 0046fb04     LIBCMT:undname.obj
 0002:0001fb08       ??_C@_07FPCDHGMM@?5delete?$AA@ 0046fb08     LIBCMT:undname.obj
 0002:0001fb10       ??_C@_04NIHEBCM@?5new?$AA@ 0046fb10     LIBCMT:undname.obj
 0002:0001fb18       ??_C@_0M@GFIIJFMG@__unaligned?$AA@ 0046fb18     LIBCMT:undname.obj
 0002:0001fb24       ??_C@_0L@PILCLIHE@__restrict?$AA@ 0046fb24     LIBCMT:undname.obj
 0002:0001fb30       ??_C@_07JOMMBBKO@__ptr64?$AA@ 0046fb30     LIBCMT:undname.obj
 0002:0001fb38       ??_C@_09HIJEGCPM@__clrcall?$AA@ 0046fb38     LIBCMT:undname.obj
 0002:0001fb44       ??_C@_0L@JMKHOMEK@__fastcall?$AA@ 0046fb44     LIBCMT:undname.obj
 0002:0001fb50       ??_C@_0L@NPHFGOKO@__thiscall?$AA@ 0046fb50     LIBCMT:undname.obj
 0002:0001fb5c       ??_C@_09IFJBGAPI@__stdcall?$AA@ 0046fb5c     LIBCMT:undname.obj
 0002:0001fb68       ??_C@_08GHMPAG@__pascal?$AA@ 0046fb68     LIBCMT:undname.obj
 0002:0001fb74       ??_C@_07KOLFKCDI@__cdecl?$AA@ 0046fb74     LIBCMT:undname.obj
 0002:0001fb7c       ??_C@_08EHJDFFNH@__based?$CI?$AA@ 0046fb7c     LIBCMT:undname.obj
 0002:0001fd08       ??_C@_0L@KDOEJCKC@_nextafter?$AA@ 0046fd08     LIBCMT:fpexcept.obj
 0002:0001fd14       ??_C@_05JGDBENOH@_logb?$AA@ 0046fd14     LIBCMT:fpexcept.obj
 0002:0001fd1c       ??_C@_03ONILCKOB@_yn?$AA@  0046fd1c     LIBCMT:fpexcept.obj
 0002:0001fd20       ??_C@_03NAKIGLHK@_y1?$AA@  0046fd20     LIBCMT:fpexcept.obj
 0002:0001fd24       ??_C@_03MJLDFKDL@_y0?$AA@  0046fd24     LIBCMT:fpexcept.obj
 0002:0001fd28       ??_C@_05GKKHEGJL@frexp?$AA@ 0046fd28     LIBCMT:fpexcept.obj
 0002:0001fd30       ??_C@_04KEPJIHGP@fmod?$AA@ 0046fd30     LIBCMT:fpexcept.obj
 0002:0001fd38       ??_C@_06MEIMCGCF@_hypot?$AA@ 0046fd38     LIBCMT:fpexcept.obj
 0002:0001fd40       ??_C@_05KBKMEMPO@_cabs?$AA@ 0046fd40     LIBCMT:fpexcept.obj
 0002:0001fd48       ??_C@_05CEJMAHNP@ldexp?$AA@ 0046fd48     LIBCMT:fpexcept.obj
 0002:0001fd50       ??_C@_04ODHECPBC@fabs?$AA@ 0046fd50     LIBCMT:fpexcept.obj
 0002:0001fd58       ??_C@_04EIAKFFMI@sqrt?$AA@ 0046fd58     LIBCMT:fpexcept.obj
 0002:0001fd60       ??_C@_05KNGEOGJB@atan2?$AA@ 0046fd60     LIBCMT:fpexcept.obj
 0002:0001fd68       ??_C@_04FJHINJAO@tanh?$AA@ 0046fd68     LIBCMT:fpexcept.obj
 0002:0001fd70       ??_C@_04HPJJNFIM@cosh?$AA@ 0046fd70     LIBCMT:fpexcept.obj
 0002:0001fd78       ??_C@_04COOMCNPB@sinh?$AA@ 0046fd78     LIBCMT:fpexcept.obj
 0002:0001fd80       __atan_table               0046fd80     LIBCMT:atan_table.obj
 0002:00021590       ??_C@_06IMKFLFPG@1?$CDQNAN?$AA@ 00471590     LIBCMT:x10fout.obj
 0002:00021598       ??_C@_05DNEBIAHO@1?$CDINF?$AA@ 00471598     LIBCMT:x10fout.obj
 0002:000215a0       ??_C@_05PHHOCPM@1?$CDIND?$AA@ 004715a0     LIBCMT:x10fout.obj
 0002:000215a8       ??_C@_06PGGFOGJG@1?$CDSNAN?$AA@ 004715a8     LIBCMT:x10fout.obj
 0002:000215b0       ??_C@_07GPDNMNG@CONOUT$?$AA@ 004715b0     LIBCMT:initcon.obj
 0002:000215b8       __load_config_used         004715b8     LIBCMT:loadcfg.obj
 0002:00021640       ??_R4bad_alloc@std@@6B@    00471640     lighting.obj
 0002:00021654       ??_R3bad_alloc@std@@8      00471654     lighting.obj
 0002:00021664       ??_R2bad_alloc@std@@8      00471664     lighting.obj
 0002:00021670       ??_R1A@?0A@EA@bad_alloc@std@@8 00471670     lighting.obj
 0002:0002168c       ??_R1A@?0A@EA@exception@std@@8 0047168c     lighting.obj
 0002:000216a8       ??_R3exception@std@@8      004716a8     lighting.obj
 0002:000216b8       ??_R2exception@std@@8      004716b8     lighting.obj
 0002:000216c0       ??_R4type_info@@6B@        004716c0     LIBCMT:typinfo.obj
 0002:000216d4       ??_R3type_info@@8          004716d4     LIBCMT:typinfo.obj
 0002:000216e4       ??_R2type_info@@8          004716e4     LIBCMT:typinfo.obj
 0002:000216ec       ??_R1A@?0A@EA@type_info@@8 004716ec     LIBCMT:typinfo.obj
 0002:00021708       ??_R4exception@std@@6B@    00471708     LIBCMT:stdexcpt.obj
 0002:0002171c       ??_R4bad_exception@std@@6B@ 0047171c     LIBCMT:frame.obj
 0002:00021730       ??_R3bad_exception@std@@8  00471730     LIBCMT:frame.obj
 0002:00021740       ??_R2bad_exception@std@@8  00471740     LIBCMT:frame.obj
 0002:0002174c       ??_R1A@?0A@EA@bad_exception@std@@8 0047174c     LIBCMT:frame.obj
 0002:00021770       ___safe_se_handler_table   00471770     <linker-defined>
 0002:00021790       ___rtc_iaa                 00471790     LIBCMT:initsect.obj
 0002:00021794       ___rtc_izz                 00471794     LIBCMT:initsect.obj
 0002:00021798       ___rtc_taa                 00471798     LIBCMT:initsect.obj
 0002:0002179c       ___rtc_tzz                 0047179c     LIBCMT:initsect.obj
 0002:000217f8       __TI2?AVbad_alloc@std@@    004717f8     lighting.obj
 0002:00021808       __CTA2?AVbad_alloc@std@@   00471808     lighting.obj
 0002:00021814       __CT??_R0?AVbad_alloc@std@@@8??0bad_alloc@std@@QAE@ABV01@@Z12 00471814     lighting.obj
 0002:00021830       __CT??_R0?AVexception@std@@@8??0exception@std@@QAE@ABV01@@Z12 00471830     lighting.obj
 0002:00021e9c       __TI2?AVbad_exception@std@@ 00471e9c     LIBCMT:frame.obj
 0002:00021eac       __CTA2?AVbad_exception@std@@ 00471eac     LIBCMT:frame.obj
 0002:00021eb8       __CT??_R0?AVbad_exception@std@@@8??0bad_exception@std@@QAE@ABV01@@Z12 00471eb8     LIBCMT:frame.obj
 0002:0002201c       __IMPORT_DESCRIPTOR_WINMM  0047201c     winmm:WINMM.dll
 0002:00022030       __IMPORT_DESCRIPTOR_KERNEL32 00472030     kernel32:KERNEL32.dll
 0002:00022044       __IMPORT_DESCRIPTOR_USER32 00472044     user32:USER32.dll
 0002:00022058       __NULL_IMPORT_DESCRIPTOR   00472058     winmm:WINMM.dll
 0003:00000000       ?LumpType_strings@@3PAPADA 00473000     bspfile.obj
 0003:00000110       ??_R0?AVbad_alloc@std@@@8  00473110     cod2rad.obj
 0003:00000144       ??_R0?AVexception@std@@@8  00473144     lighting.obj
 0003:00000188       _platformNames             00473188     targetplatform.obj
 0003:000001f0       ?bytedirs@@3PAY02MA        004731f0     com_math.obj
 0003:000060e8       _inflate_mask              004790e8     infutil.obj
 0003:00006168       _z_1_1_4_z_errmsg          00479168     zutil.obj
 0003:00006260       __fltused                  00479260     LIBCMT:fpinit.obj
 0003:00006264       __ldused                   00479264     LIBCMT:fpinit.obj
 0003:00006270       ___security_cookie         00479270     LIBCMT:gs_cookie.obj
 0003:00006274       ___security_cookie_complement 00479274     LIBCMT:gs_cookie.obj
 0003:00006278       __aexit_rtn                00479278     LIBCMT:crt0dat.obj
 0003:000063f0       __iob                      004793f0     LIBCMT:_file.obj
 0003:00006674       ??_R0?AVtype_info@@@8      00479674     LIBCMT:typinfo.obj
 0003:000066e0       __half                     004796e0     LIBCMT:pow.obj
 0003:00006710       ___app_type                00479710     LIBCMT:crt0.obj
 0003:00006714       __cfltcvt_tab              00479714     LIBCMT:cmiscdat.obj
 0003:00006860       __amblksiz                 00479860     LIBCMT:heapinit.obj
 0003:00006868       ___initialmbcinfo          00479868     LIBCMT:mbctype.obj
 0003:00006a88       __mbctype                  00479a88     LIBCMT:mbctype.obj
 0003:00006b90       __mbcasemap                00479b90     LIBCMT:mbctype.obj
 0003:00006c90       ___ptmbcinfo               00479c90     LIBCMT:mbctype.obj
 0003:00006d8c       ___globallocalestatus      00479d8c     LIBCMT:glstatus.obj
 0003:00006d90       ___clocalestr              00479d90     LIBCMT:nlsdata2.obj
 0003:00006d98       ___initiallocinfo          00479d98     LIBCMT:nlsdata2.obj
 0003:00006e70       ___ptlocinfo               00479e70     LIBCMT:nlsdata2.obj
 0003:00006e74       ___lc_clike                00479e74     LIBCMT:nlsdata2.obj
 0003:00006e78       ___initiallocalestructinfo 00479e78     LIBCMT:nlsdata2.obj
 0003:00006e80       ___flsindex                00479e80     LIBCMT:tidtable.obj
 0003:00006e84       ___getvalueindex           00479e84     LIBCMT:tidtable.obj
 0003:00006f40       __XcptActTab               00479f40     LIBCMT:winxfltr.obj
 0003:00006fb8       __First_FPE_Indx           00479fb8     LIBCMT:winxfltr.obj
 0003:00006fbc       __Num_FPE                  00479fbc     LIBCMT:winxfltr.obj
 0003:00006fc0       __XcptActTabSize           00479fc0     LIBCMT:winxfltr.obj
 0003:00006fc4       __XcptActTabCount          00479fc4     LIBCMT:winxfltr.obj
 0003:00006fc8       ___nullstring              00479fc8     LIBCMT:output.obj
 0003:00006fcc       ___wnullstring             00479fcc     LIBCMT:output.obj
 0003:00006fd0       ___badioinfo               00479fd0     LIBCMT:ioinit.obj
 0003:00007008       __sys_errlist              0047a008     LIBCMT:syserr.obj
 0003:000070b8       __sys_nerr                 0047a0b8     LIBCMT:syserr.obj
 0003:000070c0       __lookuptrailbytes         0047a0c0     LIBCMT:read.obj
 0003:000071c4       ??_R0?AVbad_exception@std@@@8 0047a1c4     LIBCMT:frame.obj
 0003:00007200       __indefinite               0047a200     LIBCMT:87disp.obj
 0003:0000720a       __piby2                    0047a20a     LIBCMT:87disp.obj
 0003:00007230       __OP_ATAN2jmptab           0047a230     LIBCMT:87triga.obj
 0003:00007290       __infinity                 0047a290     LIBCMT:87tran.obj
 0003:0000729a       __minfinity                0047a29a     LIBCMT:87tran.obj
 0003:000072a4       __logemax                  0047a2a4     LIBCMT:87tran.obj
 0003:000072ca       __OP_EXPjmptab             0047a2ca     LIBCMT:87tran.obj
 0003:00007308       __timezone                 0047a308     LIBCMT:timeset.obj
 0003:0000730c       __daylight                 0047a30c     LIBCMT:timeset.obj
 0003:00007310       __dstbias                  0047a310     LIBCMT:timeset.obj
 0003:00007398       __tzname                   0047a398     LIBCMT:timeset.obj
 0003:000073a0       __pctype                   0047a3a0     LIBCMT:ctype.obj
 0003:000073a4       __pwctype                  0047a3a4     LIBCMT:ctype.obj
 0003:000073a8       ___lc_time_c               0047a3a8     LIBCMT:strftime.obj
 0003:00007460       ___lc_time_curr            0047a460     LIBCMT:strftime.obj
 0003:00007464       ___lconv_static_decimal    0047a464     LIBCMT:lconv.obj
 0003:00007468       ___lconv_c                 0047a468     LIBCMT:lconv.obj
 0003:00007498       ___lconv                   0047a498     LIBCMT:lconv.obj
 0003:0000749c       ___mb_cur_max              0047a49c     LIBCMT:nlsdata1.obj
 0003:000074a0       ___decimal_point           0047a4a0     LIBCMT:nlsdata1.obj
 0003:000074a4       ___decimal_point_length    0047a4a4     LIBCMT:nlsdata1.obj
 0003:000074b0       ___abort_behavior          0047a4b0     LIBCMT:abort.obj
 0003:000074b4       __NLG_Destination          0047a4b4     LIBCMT:exsup.obj
 0003:000074f8       __pow10pos                 0047a4f8     LIBCMT:constpow.obj
 0003:00007658       __pow10neg                 0047a658     LIBCMT:constpow.obj
 0003:000077b8       __matherr_flag             0047a7b8     LIBCMT:matherr.obj
 0003:000078a8       __d_inf                    0047a8a8     LIBCMT:util.obj
 0003:000078b0       __d_ind                    0047a8b0     LIBCMT:util.obj
 0003:000078b8       __d_max                    0047a8b8     LIBCMT:util.obj
 0003:000078c0       __d_min                    0047a8c0     LIBCMT:util.obj
 0003:000078c8       __d_mzero                  0047a8c8     LIBCMT:util.obj
 0003:00007a50       __lpdays                   0047aa50     LIBCMT:days.obj
 0003:00007a84       __days                     0047aa84     LIBCMT:days.obj
 0003:00007ab8       __coninpfh                 0047aab8     LIBCMT:initcon.obj
 0003:00007abc       __confh                    0047aabc     LIBCMT:initcon.obj
 0003:00007b10       _lightBytes                0047ab10     bspfile.obj
 0003:05d07b10       _numnodes                  0617ab10     bspfile.obj
 0003:05d07b14       _collisionTriCount         0617ab14     bspfile.obj
 0003:05d07b18       _lightGridHeader           0617ab18     bspfile.obj
 0003:05d0bb2c       _numleafsurfaces           0617eb2c     bspfile.obj
 0003:05d0bb30       _dportals                  0617eb30     bspfile.obj
 0003:05d13b30       _numCullGroups             06186b30     bspfile.obj
 0003:05d13b34       _waterHeader               06186b34     bspfile.obj
 0003:05d13b48       ?bspFileExtension@@3PADA   06186b48     bspfile.obj
 0003:05d13b58       _lightRegionAxes           06186b58     bspfile.obj
 0003:05d63658       _diskVertCount             061d6658     bspfile.obj
 0003:05d63660       _dleafs                    061d6660     bspfile.obj
 0003:05e23660       _lightGrid2dLights         06296660     bspfile.obj
 0003:05e25640       _dplanes                   06298640     bspfile.obj
 0003:05f25640       _dportalVerts              06398640     bspfile.obj
 0003:05f55640       _waterCells                063c8640     bspfile.obj
 0003:05f55644       _diskTriSoupCount          063c8644     bspfile.obj
 0003:05f5564c       _numShaders                063c864c     bspfile.obj
 0003:05f55650       _dshaders                  063c8650     bspfile.obj
 0003:05f6ae90       _primaryLightCount         063dde90     bspfile.obj
 0003:05f6ae94       _numCells                  063dde94     bspfile.obj
 0003:05f6ae98       _cullGroupIndexes          063dde98     bspfile.obj
 0003:05f6ee98       _diskBrushModelCount       063e1e98     bspfile.obj
 0003:05f6ee9c       _numWaterCells             063e1e9c     bspfile.obj
 0003:05f6eea0       _reflectionProbes          063e1ea0     bspfile.obj
 0003:07f5325c       _numLodInfos               083c625c     bspfile.obj
 0003:07f53260       _lightRegions              083c6260     bspfile.obj
 0003:07f53360       _dbrushsides               083c6360     bspfile.obj
 0003:08453360       _numLightBytes             088c6360     bspfile.obj
 0003:08453364       _lightGridRowDataUsed      088c6364     bspfile.obj
 0003:08453368       _diskVertLayerData         088c6368     bspfile.obj
 0003:08653368       ?prtFileExtension@@3PADA   08ac6368     bspfile.obj
 0003:08653374       _numLightGrid2dPoints      08ac6374     bspfile.obj
 0003:08653378       _collisionAabbs            08ac6378     bspfile.obj
 0003:08e53378       _numuinds                  092c6378     bspfile.obj
 0003:08e5337c       _lightRegionAxisCount      092c637c     bspfile.obj
 0003:08e53380       _lightGrid2dCells          092c6380     bspfile.obj
 0003:08e61380       _numbrushedges             092d4380     bspfile.obj
 0003:08e61384       _collisionPartCount        092d4384     bspfile.obj
 0003:08e61388       _lightGridEntries          092d4388     bspfile.obj
 0003:09261388       _lightGridColors           096d4388     bspfile.obj
 0003:09ce12e0       _numleafbrushes            0a1542e0     bspfile.obj
 0003:09ce12e4       _numVisBytes               0a1542e4     bspfile.obj
 0003:09ce12e8       _numplanes                 0a1542e8     bspfile.obj
 0003:09ce12ec       _numleafs                  0a1542ec     bspfile.obj
 0003:09ce12f0       _numPortals                0a1542f0     bspfile.obj
 0003:09ce12f4       ?polyFileExtension@@3PADA  0a1542f4     bspfile.obj
 0003:09ce1300       _diskAabbTrees             0a154300     bspfile.obj
 0003:09da1300       _cullGroups                0a214300     bspfile.obj
 0003:09dc1300       _lightGridEntryCount       0a234300     bspfile.obj
 0003:09dc1304       _numSimpleLightmapBytes    0a234304     bspfile.obj
 0003:09dc1308       _visBytes                  0a234308     bspfile.obj
 0003:09fc1308       _dbrushsideEdgeCounts      0a434308     bspfile.obj
 0003:0a061308       _numCullGroupIndexes       0a4d4308     bspfile.obj
 0003:0a06130c       _lightRegionHullCount      0a4d430c     bspfile.obj
 0003:0a061310       _duinds                    0a4d4310     bspfile.obj
 0003:0a0c1310       _dbrushvertsCounts         0a534310     bspfile.obj
 0003:0a161310       _dcells                    0a5d4310     bspfile.obj
 0003:0a17d310       _numPortalVerts            0a5f0310     bspfile.obj
 0003:0a17d314       _diskVertLayerDataUsed     0a5f0314     bspfile.obj
 0003:0a17d318       _diskLodChains             0a5f0318     bspfile.obj
 0003:0a189318       _numLodSurfaces            0a5fc318     bspfile.obj
 0003:0a18931c       _burnableCellDataCount     0a5fc31c     bspfile.obj
 0003:0a189320       _dbrushedges               0a5fc320     bspfile.obj
 0003:0a389320       _drawIndexCount            0a7fc320     bspfile.obj
 0003:0a389328       _diskLodSurfaces           0a7fc328     bspfile.obj
 0003:0a3c9328       _dbrushverts               0a83c328     bspfile.obj
 0003:0a6c9328       _diskLodInfos              0ab3c328     bspfile.obj
 0003:0a6d5328       _diskAabbTreeCount         0ab48328     bspfile.obj
 0003:0a6d5330       _simpleLightmapBytes       0ab48330     bspfile.obj
 0003:0bed5330       _collisionTriEdgeIsWalkable 0c348330     bspfile.obj
 0003:0bee1330       _diskTriSoups              0c354330     bspfile.obj
 0003:0c0a1330       _burnableHeader            0c514330     bspfile.obj
 0003:0c0a1340       _collisionAabbCount        0c514340     bspfile.obj
 0003:0c0a1344       _collisionVertCount        0c514344     bspfile.obj
 0003:0c0a1348       _diskGfxVertices           0c514348     bspfile.obj
 0003:10d21348       _dleafsurfaces             11194348     bspfile.obj
 0003:10da1348       _numLightGrid2dCells       11214348     bspfile.obj
 0003:10da134c       _numBurnableCells          1121434c     bspfile.obj
 0003:10da1350       _lightGridRowData          11214350     bspfile.obj
 0003:10de1350       _diskBrushModels           11254350     bspfile.obj
 0003:10ea1320       _collisionBorderCount      11314320     bspfile.obj
 0003:10ea1324       _numbrushverts             11314324     bspfile.obj
 0003:10ea1328       _lightGridColorCount       11314328     bspfile.obj
 0003:10ea132c       _lightRegionCount          1131432c     bspfile.obj
 0003:10ea1330       _numLodChains              11314330     bspfile.obj
 0003:10ea1334       _numbrushes                11314334     bspfile.obj
 0003:10ea1338       _num_entities              11314338     bspfile.obj
 0003:10ea133c       _numbrushsides             1131433c     bspfile.obj
 0003:10ea1340       _collisionTris             11314340     bspfile.obj
 0003:10f61340       _collisionBorders          113d4340     bspfile.obj
 0003:11041340       ?dpaths@@3PAEA             114b4340     bspfile.obj
 0003:11241340       _dleafbrushes              116b4340     bspfile.obj
 0003:11341340       _drawIndexes               117b4340     bspfile.obj
 0003:117c1340       _collisionParts            11c34340     bspfile.obj
 0003:11a41340       _dnodes                    11eb4340     bspfile.obj
 0003:11b61340       _lightGrid2dPoints         11fd4340     bspfile.obj
 0003:13361340       _entities                  137d4340     bspfile.obj
 0003:136a1340       _entdatasize               13b14340     bspfile.obj
 0003:136a1344       _numLightGrid2dIndices     13b14344     bspfile.obj
 0003:136a1348       _lightGrid2dIndices        13b14348     bspfile.obj
 0003:13ea1348       _dbrushes                  14314348     bspfile.obj
 0003:13ec1348       _dentdata                  14334348     bspfile.obj
 0003:14ec1348       _numLightGrid2dLights      15334348     bspfile.obj
 0003:14ec134c       _numReflectionProbes       1533434c     bspfile.obj
 0003:14ec1350       _collisionVerts            15334350     bspfile.obj
 0003:14f81350       _primaryLights             153f4350     bspfile.obj
 0003:14f892d0       _lightRegionHulls          153fc2d0     bspfile.obj
 0003:14faf070       _burnableCellData          15422070     bspfile.obj
 0003:14faf074       ?pathSize@@3HA             15422074     bspfile.obj
 0003:14faf078       _burnableCells             15422078     bspfile.obj
 0003:15faf078       _installDir                16422078     cmdlib.obj
 0003:15faf478       ?g_pfnError@@3P6AXPBDPAD@ZA 16422478     cmdlib.obj
 0003:15faf47c       ?g_pfnPrintf@@3P6AXPBDPAD@ZA 1642247c     cmdlib.obj
 0003:15faf480       ?g_pfnErrorNum@@3P6AXHPBDPAD@ZA 16422480     cmdlib.obj
 0003:15faf484       ?g_pfnPrintfNum@@3P6AXHPBDPAD@ZA 16422484     cmdlib.obj
 0003:15faf488       _verbose                   16422488     cmdlib.obj
 0003:15faf490       ?options@@3Uoptions_t@@A   16422490     cmdline.obj
 0003:1804fa50       ?bmpFileIndex@@3HA         184c2a50     harmonics.obj
 0003:18050530       ?lightingGlob@@3ULightingGlobals@@A 184c3530     lighting.obj
 0003:18084598       ?s_techSetCount@@3HA       184f7598     materials.obj
 0003:1808459c       ?s_mtlCount@@3HA           184f759c     materials.obj
 0003:180905a0       ?defaultSubdivisions@@3MA  185035a0     materials.obj
 0003:180945a8       ?sun@@3URadPointLight@@A   185075a8     oldgrid.obj
 0003:180945f0       ?lightgrid@@3PAY0EAA@Upixel@@A 185075f0     oldgrid.obj
 0003:184945f0       ?sOutput@@3PAU_iobuf@@A    189075f0     oldgrid.obj
 0003:184945f8       ?hit_point@@3PAMA          189075f8     oldgrid.obj
 0003:18494628       ?hit_normal@@3PAMA         18907628     oldgrid.obj
 0003:18494634       ?sCellData@@3V?$vector@UCellData@@V?$allocator@UCellData@@@std@@@std@@A 18907634     oldgrid.obj
 0003:18494644       ?sLightIndices@@3V?$vector@ULightIndex@@V?$allocator@ULightIndex@@@std@@@std@@A 18907644     oldgrid.obj
 0003:18494654       ?sGridPoints@@3V?$vector@UGridPoint@@V?$allocator@UGridPoint@@@std@@@std@@A 18907654     oldgrid.obj
 0003:18494664       ?sLights@@3V?$vector@PAURadPointLight@@V?$allocator@PAURadPointLight@@@std@@@std@@A 18907664     oldgrid.obj
 0003:18494674       ?sGridLightInfo@@3V?$vector@UGridLightInfo@@V?$allocator@UGridLightInfo@@@std@@@std@@A 18907674     oldgrid.obj
 0003:18494688       ?pointLightGlob@@3U_plGlob@@A 18907688     pointlights.obj
 0003:184b8aa8       _targetPlatform            1892baa8     targetplatform.obj
 0003:184b9ab4       ?marker_cm_tracebox@@3HA   1892cab4     cm_tracebox.obj
 0003:184b9ab8       ?marker_dobj@@3HA          1892cab8     dobj.obj
 0003:184b9ac0       ?marker_r_xsurface_load_obj@@3HA 1892cac0     r_xsurface_load_obj.obj
 0003:18599e80       ?scrMemTreePub@@3UscrMemTreePub_t@@A 18a0ce80     scr_memorytree.obj
 0003:18599e84       ?marker_scr_memorytree@@3HA 18a0ce84     scr_memorytree.obj
 0003:185c1080       ?marker_scr_stringlist@@3HA 18a34080     scr_stringlist.obj
 0003:185c1088       ?marker_xmodel@@3HA        18a34088     xmodel.obj
 0003:185c1090       ?g_default@@3UXModelDefault@@A 18a34090     xmodel.obj
 0003:185c10dc       ?marker_xmodel_load_obj@@3HA 18a340dc     xmodel_load_obj.obj
 0003:185c1100       ?marker_xmodel_utils@@3HA  18a34100     xmodel_utils.obj
 0003:185c210c       ?marker_assertive@@3HA     18a3510c     assertive.obj
 0003:185c5420       _alwaysfails               18a38420     assertive.obj
 0003:185c5428       ?isHandlingAssert@@3HA     18a38428     assertive.obj
 0003:185c5838       ?fs_copyfiles@@3PBUdvar_s@@B 18a38838     com_files.obj
 0003:185c583c       ?fs_cdpath@@3PBUdvar_s@@B  18a3883c     com_files.obj
 0003:185c5840       ?fs_basegame@@3PBUdvar_s@@B 18a38840     com_files.obj
 0003:185c5844       ?fs_ignoreLocalized@@3PBUdvar_s@@B 18a38844     com_files.obj
 0003:185c5848       ?fs_gamedir@@3PADA         18a38848     com_files.obj
 0003:185c5948       ?fs_gameDirVar@@3PBUdvar_s@@B 18a38948     com_files.obj
 0003:185c594c       ?com_fileAccessed@@3HA     18a3894c     com_files.obj
 0003:185c5950       ?fs_debug@@3PBUdvar_s@@B   18a38950     com_files.obj
 0003:185c5954       ?marker_com_files@@3HA     18a38954     com_files.obj
 0003:185c5958       ?lastValidBase@@3PADA      18a38958     com_files.obj
 0003:185c5a58       ?fs_basepath@@3PBUdvar_s@@B 18a38a58     com_files.obj
 0003:185c5a5c       ?fs_loadStack@@3HA         18a38a5c     com_files.obj
 0003:185c5a60       ?lastValidGame@@3PADA      18a38a60     com_files.obj
 0003:185c5b60       ?fs_homepath@@3PBUdvar_s@@B 18a38b60     com_files.obj
 0003:185c5b68       ?fsh@@3PAUfileHandleData_t@@A 18a38b68     com_files.obj
 0003:185ca384       ?fs_searchpaths@@3PAUsearchpath_s@@A 18a3d384     com_files.obj
 0003:185ca388       ?fs_iwdFileCount@@3HA      18a3d388     com_files.obj
 0003:185ca414       ?marker_com_math@@3HA      18a3d414     com_math.obj
 0003:185ca418       ?marker_com_memory@@3HA    18a3d418     com_memory.obj
 0003:185ca420       ?g_largeLocalBuf@@3PAEA    18a3d420     com_memory.obj
 0003:1864a420       ?com_dedicated@@3PBUdvar_s@@B 18abd420     com_memory.obj
 0003:1864b4d0       ?marker_com_shared@@3HA    18abe4d0     com_shared.obj
 0003:1864b4d8       ?dvar_modifiedFlags@@3HA   18abe4d8     dvar.obj
 0003:1864b4dc       ?dvarCount@@3HA            18abe4dc     dvar.obj
 0003:1864b4e0       ?marker_dvar@@3HA          18abe4e0     dvar.obj
 0003:186978f4       ?marker_q_parse@@3HA       18b0a8f4     q_parse.obj
 0003:186ab314       ?marker_q_shared@@3HA      18b1e314     q_shared.obj
 0003:186ab318       ?g_traceThreadInfo@@3PAUTraceThreadInfo@@A 18b1e318     q_shared.obj
 0003:186ab330       ?marker_win_common@@3HA    18b1e330     win_common.obj
 0003:186ab438       ?marker_r_image_wavelet@@3HA 18b1e438     r_image_wavelet.obj
 0003:186ab43c       ?marker_r_imagedecode@@3HA 18b1e43c     r_imagedecode.obj
 0003:186ab440       ?marker_r_light_load_obj@@3HA 18b1e440     r_light_load_obj.obj
 0003:186ab444       ?marker_r_xsurface@@3HA    18b1e444     r_xsurface.obj
 0003:186ab44c       ___fastflag                18b1e44c     LIBCMT:fpinit.obj
 0003:186ab450       __adjust_fdiv              18b1e450     LIBCMT:fpinit.obj
 0003:186ab464       __umaskval                 18b1e464     LIBCMT:crt0dat.obj
 0003:186ab468       __osplatform               18b1e468     LIBCMT:crt0dat.obj
 0003:186ab46c       __osver                    18b1e46c     LIBCMT:crt0dat.obj
 0003:186ab470       __winver                   18b1e470     LIBCMT:crt0dat.obj
 0003:186ab474       __winmajor                 18b1e474     LIBCMT:crt0dat.obj
 0003:186ab478       __winminor                 18b1e478     LIBCMT:crt0dat.obj
 0003:186ab47c       ___argc                    18b1e47c     LIBCMT:crt0dat.obj
 0003:186ab480       ___argv                    18b1e480     LIBCMT:crt0dat.obj
 0003:186ab484       ___wargv                   18b1e484     LIBCMT:crt0dat.obj
 0003:186ab488       __environ                  18b1e488     LIBCMT:crt0dat.obj
 0003:186ab48c       ___initenv                 18b1e48c     LIBCMT:crt0dat.obj
 0003:186ab490       __wenviron                 18b1e490     LIBCMT:crt0dat.obj
 0003:186ab494       ___winitenv                18b1e494     LIBCMT:crt0dat.obj
 0003:186ab498       __pgmptr                   18b1e498     LIBCMT:crt0dat.obj
 0003:186ab49c       __wpgmptr                  18b1e49c     LIBCMT:crt0dat.obj
 0003:186ab4a0       __exitflag                 18b1e4a0     LIBCMT:crt0dat.obj
 0003:186ab4a4       __C_Termination_Done       18b1e4a4     LIBCMT:crt0dat.obj
 0003:186ab4a8       __C_Exit_Done              18b1e4a8     LIBCMT:crt0dat.obj
 0003:186ab4b0       __cflush                   18b1e4b0     LIBCMT:_file.obj
 0003:186ab4b4       ?nothrow@std@@3Unothrow_t@1@B 18b1e4b4     LIBCMT:nothrow0.obj
 0003:186ab4b8       ___pInvalidArgHandler      18b1e4b8     LIBCMT:invarg.obj
 0003:186ab4bc       __aenvptr                  18b1e4bc     LIBCMT:crt0.obj
 0003:186ab4c0       __wenvptr                  18b1e4c0     LIBCMT:crt0.obj
 0003:186ab4c4       ___error_mode              18b1e4c4     LIBCMT:crt0.obj
 0003:186ab4c8       ?_pnhHeap@@3P6AHI@ZA       18b1e4c8     LIBCMT:handler.obj
 0003:186ab4cc       __newmode                  18b1e4cc     LIBCMT:_newmode.obj
 0003:186ab620       __crtheap                  18b1e620     LIBCMT:heapinit.obj
 0003:186ab624       ___sbh_pHeaderDefer        18b1e624     LIBCMT:sbheap.obj
 0003:186ab62c       ___mbulinfo                18b1e62c     LIBCMT:mbctype.obj
 0003:186ab638       ___mbcodepage              18b1e638     LIBCMT:mbctype.obj
 0003:186ab63c       ___ismbcodepage            18b1e63c     LIBCMT:mbctype.obj
 0003:186ab640       ___mblcid                  18b1e640     LIBCMT:mbctype.obj
 0003:186ab644       ___locale_changed          18b1e644     LIBCMT:setlocal.obj
 0003:186ab648       ___lc_handle               18b1e648     LIBCMT:nlsdata2.obj
 0003:186ab660       ___lc_codepage             18b1e660     LIBCMT:nlsdata2.obj
 0003:186ab664       ___lc_collate_cp           18b1e664     LIBCMT:nlsdata2.obj
 0003:186ab668       _gpFlsAlloc                18b1e668     LIBCMT:tidtable.obj
 0003:186ab66c       _gpFlsGetValue             18b1e66c     LIBCMT:tidtable.obj
 0003:186ab670       _gpFlsSetValue             18b1e670     LIBCMT:tidtable.obj
 0003:186ab674       _gpFlsFree                 18b1e674     LIBCMT:tidtable.obj
 0003:186abcb4       ?__pInconsistency@@3P6AXXZA 18b1ecb4     LIBCMT:hooks.obj
 0003:186abcd8       ___pPurecall               18b1ecd8     LIBCMT:inithelp.obj
 0003:186abce0       __stdbuf                   18b1ece0     LIBCMT:_sftbuf.obj
 0003:186abce8       __maxwait                  18b1ece8     LIBCMT:crtheap.obj
 0003:186abec4       __outputformat             18b1eec4     LIBCMT:outputformat.obj
 0003:186abecc       ___lconv_static_null       18b1eecc     LIBCMT:lconv.obj
 0003:186abee4       __commode                  18b1eee4     LIBCMT:ncommode.obj
 0003:186abefc       ?pArgList@UnDecorator@@0PAVReplicator@@A 18b1eefc     LIBCMT:undname.obj
 0003:186abf00       ?pZNameList@UnDecorator@@0PAVReplicator@@A 18b1ef00     LIBCMT:undname.obj
 0003:186abf04       ?pTemplateArgList@UnDecorator@@0PAVReplicator@@A 18b1ef04     LIBCMT:undname.obj
 0003:186abf08       ?gName@UnDecorator@@0PBDB  18b1ef08     LIBCMT:undname.obj
 0003:186abf0c       ?name@UnDecorator@@0PBDB   18b1ef0c     LIBCMT:undname.obj
 0003:186abf10       ?outputString@UnDecorator@@0PADA 18b1ef10     LIBCMT:undname.obj
 0003:186abf14       ?maxStringLength@UnDecorator@@0HA 18b1ef14     LIBCMT:undname.obj
 0003:186abf18       ?disableFlags@UnDecorator@@0KA 18b1ef18     LIBCMT:undname.obj
 0003:186abf1c       ?m_pGetParameter@UnDecorator@@0P6APADJ@ZA 18b1ef1c     LIBCMT:undname.obj
 0003:186abf20       ?fExplicitTemplateParams@UnDecorator@@0_NA 18b1ef20     LIBCMT:undname.obj
 0003:186abf21       ?fGetTemplateArgumentList@UnDecorator@@0_NA 18b1ef21     LIBCMT:undname.obj
 0003:186abf24       __fmode                    18b1ef24     LIBCMT:txtmode.obj
 0003:186abf2c       __debugger_hook_dummy      18b1ef2c     <common>
 0003:186abf30       __pmatherr                 18b1ef30     <common>
 0003:186abf34       __nhandle                  18b1ef34     <common>
 0003:186abf40       ___pioinfo                 18b1ef40     <common>
 0003:186ac040       ___sbh_cntHeaderList       18b1f040     <common>
 0003:186ac044       ___sbh_pHeaderList         18b1f044     <common>
 0003:186ac048       ___sbh_threshold           18b1f048     <common>
 0003:186ac04c       ___sbh_pHeaderScan         18b1f04c     <common>
 0003:186ac050       ___sbh_sizeHeaderList      18b1f050     <common>
 0003:186ac054       ___sbh_indGroupDefer       18b1f054     <common>
 0003:186ac058       ___active_heap             18b1f058     <common>
 0003:186ac05c       ___use_sse2_mathfcns       18b1f05c     <common>
 0003:186ac060       ___sse2_available          18b1f060     <common>
 0003:186ac064       __acmdln                   18b1f064     <common>
 0003:186ac068       ___piob                    18b1f068     <common>
 0003:186ac080       __bufin                    18b1f080     <common>
 0003:186ad080       __nstream                  18b20080     <common>
 0003:186ad084       ___env_initialized         18b20084     <common>
 0003:186ad088       ___onexitend               18b20088     <common>
 0003:186ad08c       ___onexitbegin             18b2008c     <common>
 0003:186ad090       ___mbctype_initialized     18b20090     <common>
 0003:186ad094       ___dyn_tls_init_callback   18b20094     <common>

 entry point at        0001:0003b68c

 Static symbols

 0001:00000040       ?PickAabbSplitPlane@@YAHPAY02M0PAHH1PAM@Z 00401040 f   aabbtree.obj
 0001:000008d0       ?AddedVolume@@YAMQBM000@Z  004018d0 f   aabbtree.obj
 0001:00000950       ?SplitAabbTree@@YAHHPBUGenericAabbTreeOptions@@PAH11@Z 00401950 f   aabbtree.obj
 0001:00000d60       ?AllocAabbTreeNode@@YAPAUGenericAabbTree@@PBUGenericAabbTreeOptions@@@Z 00401d60 f   aabbtree.obj
 0001:00000da0       ?CreateAabbSubTrees@@YAXPAUGenericAabbTree@@PBUGenericAabbTreeOptions@@PAHHH@Z 00401da0 f   aabbtree.obj
 0001:00000ed0       ?BuildAabbTree_r@@YAXPAUGenericAabbTree@@PBUGenericAabbTreeOptions@@PAH@Z 00401ed0 f   aabbtree.obj
 0001:000012d0       ?ValidateLumpData@@YAPBXPBUBspHeader@@W4LumpType@@IIIIPAI@Z 004022d0 f   bspfile.obj
 0001:00001320       ?GetLumpData@@YAPBXPBUBspHeader@@W4LumpType@@IIPAI@Z 00402320 f   bspfile.obj
 0001:00001400       ?CopyTrianglesLump_Version12@@YAIPBUBspHeader@@W4LumpType@@PAUDiskTriangleSoup@@II@Z 00402400 f   bspfile.obj
 0001:000014a0       ?CopyTrianglesLump_Version8@@YAIPBUBspHeader@@W4LumpType@@PAUDiskTriangleSoup@@II@Z 004024a0 f   bspfile.obj
 0001:00001540       ?CopyLeafsLump_Version14@@YAIPBUBspHeader@@W4LumpType@@PAUDiskLeaf@@II@Z 00402540 f   bspfile.obj
 0001:000015b0       ?CopyLumpReflectionProbes_Version11@@YAXPBUBspHeader@@@Z 004025b0 f   bspfile.obj
 0001:00001640       ?SanitizeLayeredMaterialNames@@YAXXZ 00402640 f   bspfile.obj
 0001:000016f0       ?ConvertPrimaryLightsFromVersion14@@YAIQAUDiskPrimaryLight_Version16@@I@Z 004026f0 f   bspfile.obj
 0001:00001790       ?CopyPrimaryLightsLump_Version16@@YAIPBUBspHeader@@W4LumpType@@PAUDiskPrimaryLight@@II@Z 00402790 f   bspfile.obj
 0001:000018d0       ?AddLumpSane@@YAXPAUBspHeader@@QAPBXW4LumpType@@PBXII@Z 004028d0 f   bspfile.obj
 0001:000019a0       ?AssertTrisValid@@YAXPBUDiskTriangleSoup@@IIPAGH@Z 004029a0 f   bspfile.obj
 0001:00005250       ?CopyCellsLump_Version21@@YAIPBUBspHeader@@W4LumpType@@PAUDiskGfxCell@@II@Z 00406250 f   bspfile.obj
 0001:00005350       ?CopyCellsLump_Version14@@YAIPBUBspHeader@@W4LumpType@@PAUDiskGfxCell@@II@Z 00406350 f   bspfile.obj
 0001:000065f0       ?qblockmalloc@@YAPAXH@Z    004075f0 f   cmdlib.obj
 0001:00006b30       ?SetDefaultOptions@@YAXXZ  00407b30 f   cmdline.obj
 0001:00006c90       ?PCL_Integer@@YAHHQAPADPAHHH@Z 00407c90 f   cmdline.obj
 0001:00006d40       ?PCL_Float@@YAHHQAPADPAMMM@Z 00407d40 f   cmdline.obj
 0001:00006e40       ?PCL_Verbose@@YAHHQAPAD@Z  00407e40 f   cmdline.obj
 0001:00006e50       ?PCL_Quiet@@YAHHQAPAD@Z    00407e50 f   cmdline.obj
 0001:00006e60       ?PCL_Warn@@YAHHQAPAD@Z     00407e60 f   cmdline.obj
 0001:00006e90       ?PCL_TargetPlatform@@YAHHQAPAD@Z 00407e90 f   cmdline.obj
 0001:00006ed0       ?PCL_Fast@@YAHHQAPAD@Z     00407ed0 f   cmdline.obj
 0001:00006f10       ?PCL_Extra@@YAHHQAPAD@Z    00407f10 f   cmdline.obj
 0001:00006f50       ?PCL_ModelShadow@@YAHHQAPAD@Z 00407f50 f   cmdline.obj
 0001:00006f60       ?PCL_NoModelShadow@@YAHHQAPAD@Z 00407f60 f   cmdline.obj
 0001:00006f70       ?PCL_RadiosityTraces@@YAHHQAPAD@Z 00407f70 f   cmdline.obj
 0001:00006fb0       ?PCL_RadiosityJitter@@YAHHQAPAD@Z 00407fb0 f   cmdline.obj
 0001:00006fe0       ?PCL_SuperSampleAlpha@@YAHHQAPAD@Z 00407fe0 f   cmdline.obj
 0001:00007010       ?PCL_SuperSample@@YAHHQAPAD@Z 00408010 f   cmdline.obj
 0001:00007040       ?PCL_TraceFilterLinear@@YAHHQAPAD@Z 00408040 f   cmdline.obj
 0001:00007050       ?PCL_TraceFilterPoint@@YAHHQAPAD@Z 00408050 f   cmdline.obj
 0001:00007060       ?PCL_MaxBounces@@YAHHQAPAD@Z 00408060 f   cmdline.obj
 0001:00007090       ?PCL_RadiosityScale@@YAHHQAPAD@Z 00408090 f   cmdline.obj
 0001:000070d0       ?PCL_Gamma@@YAHHQAPAD@Z    004080d0 f   cmdline.obj
 0001:00007110       ?PCL_ContrastGain@@YAHHQAPAD@Z 00408110 f   cmdline.obj
 0001:00007150       ?PCL_NoRelight@@YAHHQAPAD@Z 00408150 f   cmdline.obj
 0001:00007170       ?PCL_BasisDirCount@@YAHHQAPAD@Z 00408170 f   cmdline.obj
 0001:000071a0       ?PCL_Threads@@YAHHQAPAD@Z  004081a0 f   cmdline.obj
 0001:000071d0       ?PCL_DumpOptions@@YAHHQAPAD@Z 004081d0 f   cmdline.obj
 0001:00007340       ?PCL_NoPrimaryVis@@YAHHQAPAD@Z 00408340 f   cmdline.obj
 0001:000073a0       ?DispatchCommands_Internal@@YA_NHQAPADH@Z 004083a0 f   cmdline.obj
 0001:00007822       __catch$_main$0            00408822 f   cod2rad.obj
 0001:000078c0       ?BlockAlloc_Init@@YAXPAUBlockAllocator@@IIII@Z 004088c0 f   compile.obj
 0001:00007a10       ?BlockAlloc_Alloc@@YAPAXPAUBlockAllocator@@I@Z 00408a10 f   compile.obj
 0001:00007b80       ?BlockAlloc_Realloc@@YAPAXPAUBlockAllocator@@PAXII@Z 00408b80 f   compile.obj
 0001:00008290       ?AddDirectLightTransport@@YAXHQBM0PAULightingSampleVars@@@Z 00409290 f   compile.obj
 0001:00008320       ?AddBouncedLightTransport@@YAXHPAUWeightedSample@@PAULightingSample@@HM@Z 00409320 f   compile.obj
 0001:00008410       ?AddLightInfluence@@YAXHW4LightInfluenceType@@QBMM11QAY02$$CBMMPAULightingSubSample@@@Z 00409410 f   compile.obj
 0001:000085e0       ?LightTraceAtPoint@@YAXHHHQBM00QAY02$$CBMMMPAULightingSubSample@@@Z 004095e0 f   compile.obj
 0001:00008670       ?RadiositySampleRadius@@YAMH@Z 00409670 f   compile.obj
 0001:00008730       ?GenerateRadiositySamples@@YAXXZ 00409730 f   compile.obj
 0001:000087f0       ?GatherLightToSample@@YAXPAULightingSample@@H@Z 004097f0 f   compile.obj
 0001:00008a00       ?RadiosityStep@@YAMH@Z     00409a00 f   compile.obj
 0001:00008b50       ?Radiosity@@YAXMH@Z        00409b50 f   compile.obj
 0001:00008c00       ?InitTransportBuffers@@YAXH@Z 00409c00 f   compile.obj
 0001:00008e10       ?SunTraceAtPoint@@YAXHHQBM00QAY02$$CBMMMPAULightingSubSample@@@Z 00409e10 f   compile.obj
 0001:000098f0       ?FindLightingTransferAtPointInDir@@YA?AW4TraceHitResult@@QBMQAY02$$CBMHQAUWeightedSample@@PAH@Z 0040a8f0 f   compile.obj
 0001:00009ed0       ?DeriveTriangleNormal@@YA_NPAULitTriangle@@@Z 0040aed0 f   geometry.obj
 0001:00009f70       ?GetTriangleVert@@YAXIPBUorientation_t@@@Z 0040af70 f   geometry.obj
 0001:00009ff0       ?TriangleHasDegenerateLightmapCoords@@YA_NPBULitTriangle@@@Z 0040aff0 f   geometry.obj
 0001:0000a090       ?AddSingleTriangle@@YAXPBUDiskTriangleSoup@@HPBUorientation_t@@PBUMaskedMaterial@@HH@Z 0040b090 f   geometry.obj
 0001:0000a2b0       ?AddInvisibleOpaqueVert@@YAHQBM0@Z 0040b2b0 f   geometry.obj
 0001:0000a520       ?MaterialAlphaIsOpaque@@YA_NPBUMaskedMaterial@@QBM@Z 0040b520 f   geometry.obj
 0001:0000a5f0       ?SampleAlpha@@YAIPBUMaskedMaterial@@QBM11M11MMPBUTraceInput@@I@Z 0040b5f0 f   geometry.obj
 0001:0000a790       ?AddTraceHit@@YAXW4TraceHitGeoType@@TTraceHitGeo@@PBUMaskedMaterial@@MMMMMQBM3333PAUTraceWork@@@Z 0040b790 f   geometry.obj
 0001:0000a940       ?TracePointThroughTriangle@@YAXPAULitTriangle@@PAUTraceWork@@@Z 0040b940 f   geometry.obj
 0001:0000ade0       ?TraceWalk_r@@YAXHNNPAUTraceWork@@@Z 0040bde0 f   geometry.obj
 0001:0000b240       ?IsPointInBrush@@YA_NQBMI@Z 0040c240 f   geometry.obj
 0001:0000b410       ?AabbOnPlaneSide@@YAHPBUAabb@@QBMM@Z 0040c410 f   geometry.obj
 0001:0000b630       ?ClassifyTriangle@@YAHPBULitTriangle@@QBMM@Z 0040c630 f   geometry.obj
 0001:0000b760       ?CompareAxialLimits@@YAHPBX0@Z 0040c760 f   geometry.obj
 0001:0000b760       ?compare_floats@@YAHPBX0@Z 0040c760 f   geometry.obj
 0001:0000b7a0       ?GetTriBoundsOnAxis@@YAXPBULitTriangle@@HQAM@Z 0040c7a0 f   geometry.obj
 0001:0000b840       ?ChooseAxialSplitPlane@@YAHQAPBULitTriangle@@HQAM@Z 0040c840 f   geometry.obj
 0001:0000be50       ?ChooseBspSplitPlane@@YA_NQAPBULitTriangle@@HQAM@Z 0040ce50 f   geometry.obj
 0001:0000bf80       ?MakeBspLeaf@@YAHQAPBULitTriangle@@H@Z 0040cf80 f   geometry.obj
 0001:0000c060       ?SortTriListOnPlaneSide@@YAHQBMMHQAPBULitTriangle@@H@Z 0040d060 f   geometry.obj
 0001:0000c0b0       ?ExtendBsp_r@@YAHHQAPBULitTriangle@@H@Z 0040d0b0 f   geometry.obj
 0001:0000c190       ?CompleteBsp@@YAXXZ        0040d190 f   geometry.obj
 0001:0000c310       ?CopyBspNode@@YAXPAUdnode_t@@PAULightingBspNode@@@Z 0040d310 f   geometry.obj
 0001:0000c390       ?InitialBsp@@YAXXZ         0040d390 f   geometry.obj
 0001:0000c410       ?ForEachAreaInTriangle@@YAXPAULitTriangle@@HP6AXMQBMQAY01$$CBMHPAXH@Z3@Z 0040d410 f   geometry.obj
 0001:0000c760       ?GetClampedAreaX2@@YAMMM@Z 0040d760 f   geometry.obj
 0001:0000c7c0       ?AddAreaToLightingSample@@YAXMQBMQAY01$$CBMHPAXH@Z 0040d7c0 f   geometry.obj
 0001:0000c840       ?LookupTextureColor@@YAXMQBMQAY01$$CBMHPAXH@Z 0040d840 f   geometry.obj
 0001:0000c960       ?GetAverageTextureColor@@YAXPBUSampleColorThreadData@@QAY01$$CBMHQAM@Z 0040d960 f   geometry.obj
 0001:0000cba0       ?AddColorToLightingSample@@YAXMQBMQAY01$$CBMHPAXH@Z 0040dba0 f   geometry.obj
 0001:0000ccd0       ?MakeBasisOrthonormal@@YAXQAY02M@Z 0040dcd0 f   geometry.obj
 0001:0000cdd0       ?GetVectorFromCoords@@YAXPBUVectorFromCoordinates@@QBMQAM@Z 0040ddd0 f   geometry.obj
 0001:0000ce30       ?SuppressLightingSubSample@@YAXPAULightingSubSample@@MM@Z 0040de30 f   geometry.obj
 0001:0000ce70       ?FindLightingTransfersFromSample@@YAXMQBMQAY01$$CBMHPAXH@Z 0040de70 f   geometry.obj
 0001:0000d380       ?AddLightingAreaForTri@@YAXHH@Z 0040e380 f   geometry.obj
 0001:0000d3b0       ?SetColorForTri@@YAXHH@Z   0040e3b0 f   geometry.obj
 0001:0000d540       ?GetTextureToWorldMappings@@YA_NPAULitTriangle@@PAUTransferThreadData@@@Z 0040e540 f   geometry.obj
 0001:0000d800       ?ForEachLightTransfer@@YAXHHHP6AXMQBMQAY01$$CBMHPAXH@Z@Z 0040e800 f   geometry.obj
 0001:0000d880       ?GetTransfersForTri@@YAXHH@Z 0040e880 f   geometry.obj
 0001:0000d910       ?ForEachLightmapPixel@@YAXHH@Z 0040e910 f   geometry.obj
 0001:0000d980       ?DoesTriangleOverlapAxis@@YA_NMMMM@Z 0040e980 f   geometry.obj
 0001:0000d9f0       ?DoesTriangleIntersectBox@@YA_NPBULitTriangle@@PBUAabb@@@Z 0040e9f0 f   geometry.obj
 0001:0000e0c0       ?FindLeafTrianglesInBox@@YAHQAPAULitTriangle@@HPBUAabb@@QAPBU1@HH@Z 0040f0c0 f   geometry.obj
 0001:0000e120       ?FindTrianglesInBox_r@@YAHHPBUAabb@@QAPBULitTriangle@@HH@Z 0040f120 f   geometry.obj
 0001:0000e1c0       ?GridBsp_NewNode@@YAPAUGridBspNode@@PAU1@QAPBULitTriangle@@HPAUSmallHunk@@@Z 0040f1c0 f   geometry.obj
 0001:0000e240       ?GridBsp_BuildTree_r@@YAPAUGridBspNode@@PAU1@QAPBULitTriangle@@HPAUSmallHunk@@@Z 0040f240 f   geometry.obj
 0001:0000e450       ?GridBsp_FilterPortalWindingToLeafLinks_r@@YAXPAUGridBspNode@@0PAUwinding_t@@PAUSmallHunk@@@Z 0040f450 f   geometry.obj
 0001:0000e670       ?GetLitTriangleSidePlane@@YAXPBULitTriangle@@HHQAM@Z 0040f670 f   geometry.obj
 0001:0000e700       ?GridBsp_FindLinksForWinding_r@@YAXPAUGridBspNode@@HPAUwinding_t@@PAUSmallHunk@@@Z 0040f700 f   geometry.obj
 0001:0000e8a0       ?GridBsp_MakeNodeWinding@@YAPAUwinding_t@@PBUGridBspNode@@PBUAabb@@@Z 0040f8a0 f   geometry.obj
 0001:0000ea80       ?GridBsp_FindLinks_r@@YAXPAUGridBspNode@@PBUAabb@@PAUSmallHunk@@@Z 0040fa80 f   geometry.obj
 0001:0000eaf0       ?GridBsp_HasPath@@YA_NPAUGridBspNode@@0H@Z 0040faf0 f   geometry.obj
 0001:0000eb40       ?GridBsp_LeafForPoint@@YAPAUGridBspNode@@PAU1@QBM@Z 0040fb40 f   geometry.obj
 0001:0000f000       ?IsPointBelowMap@@YA_NQBM@Z 00410000 f   geometry.obj
 0001:0000f400       ?GetGroundLitPrimaryLightIndex@@YAHQBUWeightedSample@@H@Z 00410400 f   groundlight.obj
 0001:0000f4b0       ?PackGroundLighting@@YAXPADHHMQBM@Z 004104b0 f   groundlight.obj
 0001:0000f5e0       ?CalculateLightingFromBelow@@YA_NPBUGroundLitModel@@PAHPAMQAM@Z 004105e0 f   groundlight.obj
 0001:0000fc00       ?SetupLightRegions@@YAXXZ  00410c00 f   lightgrid.obj
 0001:0000fc80       ?PrepareCopyGridPointsFromFile@@YA_NPBD0QADPAPAU_iobuf@@PAI@Z 00410c80 f   lightgrid.obj
 0001:0000fd70       ?CopyGridPointsFromFile@@YAXPBDPAU_iobuf@@I@Z 00410d70 f   lightgrid.obj
 0001:0000fe80       ?AllocLightGridPoints@@YAXI@Z 00410e80 f   lightgrid.obj
 0001:00010020       ?LoadGridFile@@YAXXZ       00411020 f   lightgrid.obj
 0001:000100a0       ?LoadVisCacheLog@@YAXXZ    004110a0 f   lightgrid.obj
 0001:000102f0       ?AddStaticModelGridPoints@@YAXXZ 004112f0 f   lightgrid.obj
 0001:00010450       ?GridSamplePointSortsBefore@@YA_NABUGridSamplePoint@@0@Z 00411450 f   lightgrid.obj
 0001:000104a0       ?FindGridSamplePointInLightGrid@@YAPAUGridSamplePoint@@PBU1@@Z 004114a0 f   lightgrid.obj
 0001:000106c0       ?IsGridPointInOpaqueBrushes@@YA_NPBUGridSamplePoint@@QBM@Z 004116c0 f   lightgrid.obj
 0001:00010890       ?RemoveDuplicateGridPoints@@YAXI@Z 00411890 f   lightgrid.obj
 0001:00010920       ?RemoveExcludedGridPoints@@YAXXZ 00411920 f   lightgrid.obj
 0001:00010b60       ?InsertIntermediateGridPoints@@YAXXZ 00411b60 f   lightgrid.obj
 0001:00010d90       ?LoadGridPoints@@YAXXZ     00411d90 f   lightgrid.obj
 0001:00010df0       ?CheckGridTraces@@YAXHQBMPAE@Z 00411df0 f   lightgrid.obj
 0001:00011110       ?DoesLightRegionHullContainPoint@@YA_NPBUDiskLightRegionHull@@PBUDiskLightRegionAxis@@QBM@Z 00412110 f   lightgrid.obj
 0001:000112c0       ?DoesPrimaryLightRegionContainGridPoint@@YA_NHQBM@Z 004122c0 f   lightgrid.obj
 0001:00011480       ?DistanceToLightSq@@YAMPBUDiskPrimaryLight@@QBM@Z 00412480 f   lightgrid.obj
 0001:000114b0       ?SetPrimaryLightId@@YAXAAUGridSamplePoint@@HQBM@Z 004124b0 f   lightgrid.obj
 0001:00011570       ?StoreLightingForDir@@YAXQAY02MPAUGfxLightGridColors@@@Z 00412570 f   lightgrid.obj
 0001:000115f0       ?AddSkyGridSamplePoint@@YAXXZ 004125f0 f   lightgrid.obj
 0001:00011730       ?GenerateGridSamples@@YAXXZ 00412730 f   lightgrid.obj
 0001:000118e0       ?CalculateClusterMean@@YAXPBUGridColorsCluster@@QAM@Z 004128e0 f   lightgrid.obj
 0001:00011b70       ?CalculateClusterMeanAndVariance@@YAXPAUGridColorsCluster@@@Z 00412b70 f   lightgrid.obj
 0001:00011df0       ?ChooseClusterToSplit@@YAPAUGridColorsCluster@@XZ 00412df0 f   lightgrid.obj
 0001:00011f10       ?SplitCluster@@YAXPAUGridColorsCluster@@@Z 00412f10 f   lightgrid.obj
 0001:00012140       ?SetLightGridColorsForCluster@@YAXPBUGridColorsCluster@@PAUGfxLightGridColors@@@Z 00413140 f   lightgrid.obj
 0001:000121a0       ?CompareLightGridColors@@YA_NPBUGfxLightGridColors@@0PAH@Z 004131a0 f   lightgrid.obj
 0001:00012210       ?AssignLightGridColors@@YAGPBUGfxLightGridColors@@G@Z 00413210 f   lightgrid.obj
 0001:000122a0       ?GuessLightGridColors@@YAXHH@Z 004132a0 f   lightgrid.obj
 0001:000122e0       ?SwapClusters@@YAXHH@Z     004132e0 f   lightgrid.obj
 0001:000123f0       ?ImproveLightGridValues@@YAXH@Z 004133f0 f   lightgrid.obj
 0001:000126f0       ?GetClusterDefaultScore@@YAIPBUGridColorsCluster@@@Z 004136f0 f   lightgrid.obj
 0001:00012760       ?ClusterLightGridValues@@YAXH@Z 00413760 f   lightgrid.obj
 0001:00012980       ?EmitEmptyLightGridBlock@@YAXI@Z 00413980 f   lightgrid.obj
 0001:00012a50       ?EmitLightGridBlock@@YAXIQBG0II@Z 00413a50 f   lightgrid.obj
 0001:00012d30       ?CompressLightGridRow@@YAXIIQAG@Z 00413d30 f   lightgrid.obj
 0001:00012ef0       ?EncodeLightGrid@@YAXXZ    00413ef0 f   lightgrid.obj
 0001:00013490       ?LightGridPointCanSeeSun@@YA_NQBM@Z 00414490 f   lightgrid.obj
 0001:00013600       ?ChooseOccludedSunPrimaryLight@@YAEQBM@Z 00414600 f   lightgrid.obj
 0001:00013740       ?ChoosePrimaryLightForLightGridPoint@@YAXAAUGridSamplePoint@@QBM@Z 00414740 f   lightgrid.obj
 0001:000137c0       ?ProcessLightGridPoint@@YAXHH@Z 004147c0 f   lightgrid.obj
 0001:00013c00       ?IsPointInSolid@@YA_NQBM@Z 00414c00 f   lightgrid.obj
 0001:00013d80       ?IsBadGridPoint@@YA_NPBUGridSamplePoint@@@Z 00414d80 f   lightgrid.obj
 0001:00013e10       ?RemoveBadOrDuplicateGridPoints@@YAXXZ 00414e10 f   lightgrid.obj
 0001:00014460       ?PrepareLightGridHeaderAndSortPoints@@YAXXZ 00415460 f   lightgrid.obj
 0001:00014860       ?DecodeNormalFromBytes@@YAXHHQAM@Z 00415860 f   lighting.obj
 0001:00014c00       ?PerUsefulLightingSampleCallbackWrapper@@YAXHH@Z 00415c00 f   lighting.obj
 0001:00014c30       ?PerLightingSampleCallbackWrapper@@YAXHH@Z 00415c30 f   lighting.obj
 0001:00014cc0       ?CountUsefulSamples@@YAXPAULightingSample@@H@Z 00415cc0 f   lighting.obj
 0001:00014cd0       ?InitUsefulSamples@@YAXPAULightingSample@@H@Z 00415cd0 f   lighting.obj
 0001:00014ef0       ?AdjustSampleColor@@YAXPAULightingSample@@H@Z 00415ef0 f   lighting.obj
 0001:000152d0       ?GetLightingApproximationError@@YAMQAY02$$CBMQBM11@Z 004162d0 f   lighting.obj
 0001:000153e0       ?ClampColor@@YA_NQBMQAM@Z  004163e0 f   lighting.obj
 0001:00015470       ?GetColorsForHighlightDir@@YAXQAY02$$CBMQBMQAM2@Z 00416470 f   lighting.obj
 0001:00015730       ?GetGradientOfLightingErrorFunctionWithRespectToDir@@YAXQAY02$$CBMQBM11QAM@Z 00416730 f   lighting.obj
 0001:000158b0       ?GetInitialLightingHighlightDir@@YAXQAY02$$CBMQAM@Z 004168b0 f   lighting.obj
 0001:00015af0       ?DecodeSecondaryLighting@@YAXHHHQAM00@Z 00416af0 f   lighting.obj
 0001:00015ba0       ?StoreSimpleLightmapBytes@@YAXHHHQBM@Z 00416ba0 f   lighting.obj
 0001:00016210       ?CalculateLightingForBasisDirs@@YAXPBULightingSampleVars@@QAY02M@Z 00417210 f   lighting.obj
 0001:000163f0       ?CalculateSimpleLightmapLighting@@YAXPBULightingSampleVars@@QAM@Z 004173f0 f   lighting.obj
 0001:00016490       ?GetBleedFixingLightingForBasisDirs@@YAXHHHQAY02M@Z 00417490 f   lighting.obj
 0001:00016680       ?GetSimpleLightmapBleedFixing@@YAXHHHQAM@Z 00417680 f   lighting.obj
 0001:00016810       ?GetPrimaryVisibilitySample@@YA_NPBULightingSample@@HHHHHPAM@Z 00417810 f   lighting.obj
 0001:00016a20       ?GetPrimaryVisibilityFinalValues@@YAXPBULightingSample@@HHHQAY01M@Z 00417a20 f   lighting.obj
 0001:00016ae0       ?NormalizeLightmapSample@@YAXHHHH@Z 00417ae0 f   lighting.obj
 0001:00016d40       ?GetMapRelightChecksum@@YAHXZ 00417d40 f   lighting.obj
 0001:00016fb0       ?DoesFileIntHaveExpectedValue@@YA_NPAU_iobuf@@H@Z 00417fb0 f   lighting.obj
 0001:00016fe0       ?DoesFileFloatHaveExpectedValue@@YA_NPAU_iobuf@@M@Z 00417fe0 f   lighting.obj
 0001:00017020       ?CanUseRelightFile@@YA_NPAU_iobuf@@@Z 00418020 f   lighting.obj
 0001:00017140       ?CompareSuppressedSamples@@YAHPBX0@Z 00418140 f   lighting.obj
 0001:000175a0       ?ImproveLightingApproximation@@YAXQAY02$$CBMQAM11@Z 004185a0 f   lighting.obj
 0001:00017810       ?StoreLightBytes@@YAXHHHQAY02$$CBMQAY01$$CBM@Z 00418810 f   lighting.obj
 0001:00017990       ?BuildFinalLightmapSample@@YAXHHHH@Z 00418990 f   lighting.obj
 0001:00017a80       ?Lmap_UpdateBleeding@@YAXPAEHHHMM@Z 00418a80 f   lightmap_bleed.obj
 0001:00017b40       ?Lmap_FindBleedingCallback@@YAXMQBMQAY01$$CBMHPAXH@Z 00418b40 f   lightmap_bleed.obj
 0001:00017d00       ?LUDecomposition@@YA_NQAY02NQAH@Z 00418d00 f   linearmapping.obj
 0001:00018060       ?LUBackSubstitution@@YAXQAY02$$CBNQBHQAN@Z 00419060 f   linearmapping.obj
 0001:00018210       ?ImproveAnswer@@YAXQAY02$$CBN0QBHQBNQAN@Z 00419210 f   linearmapping.obj
 0001:00018280       ?SolveEquations@@YAXQAY02$$CBN0QBHMMMQAMHHH@Z 00419280 f   linearmapping.obj
 0001:000184d0       ?ColorNormalizeMax@@YAMQAM@Z 004194d0 f   mapio.obj
 0001:00018540       ?Map_ValueForKey@@YAPBDPBUentity_t@@PBD@Z 00419540 f   mapio.obj
 0001:000185b0       ?Map_VectorForKey@@YA_NPBUentity_t@@PBDQAM@Z 004195b0 f   mapio.obj
 0001:00018650       ?Map_FloatForKey@@YA?BMPBUentity_t@@PBD@Z 00419650 f   mapio.obj
 0001:00018680       ?Map_FindEntityWithKeyValue@@YAPBUentity_t@@PBD0@Z 00419680 f   mapio.obj
 0001:000186d0       ?Map_GetEntityOrientation@@YAXPBUentity_t@@PAUorientation_t@@@Z 004196d0 f   mapio.obj
 0001:00018740       ?Map_AddSurfaces@@YAXPBUentity_t@@I@Z 00419740 f   mapio.obj
 0001:000187c0       ?Map_AddSurfaces_WorldSpawnEntity@@YAXPBUentity_t@@@Z 004197c0 f   mapio.obj
 0001:00018860       ?Map_SetOverrideableKeyValue@@YAXPAUentity_t@@PBD_NMMPAM@Z 00419860 f   mapio.obj
 0001:00018930       ?Map_WorldSpawn@@YAXPAUentity_t@@@Z 00419930 f   mapio.obj
 0001:00018d40       ?Map_BrushModel@@YAXPAUentity_t@@PBD@Z 00419d40 f   mapio.obj
 0001:00018d90       ?XModelAlloc@@YAPAXH@Z     00419d90 f   mapio.obj
 0001:00018dd0       ?Map_MiscModel@@YAXPAUentity_t@@_N@Z 00419dd0 f   mapio.obj
 0001:00019140       ?Map_Light@@YAXPAUentity_t@@@Z 0041a140 f   mapio.obj
 0001:00019460       ?Map_FinishEntity@@YAXPAUentity_t@@@Z 0041a460 f   mapio.obj
 0001:00019550       ?Map_AddPrimaryLights@@YAXXZ 0041a550 f   mapio.obj
 0001:000195e0       ?Map_LoadMaterials@@YAXXZ  0041a5e0 f   mapio.obj
 0001:000196f0       ?AlphaMaskForMaterial@@YAPAEPBUMaterialInfoRaw@@PBUGfxRawImage@@@Z 0041a6f0 f   maskedmaterial.obj
 0001:000197c0       ?ColorMaskForMaterial@@YAPAEPBUMaterialInfoRaw@@PBUGfxRawImage@@@Z 0041a7c0 f   maskedmaterial.obj
 0001:00019970       ?FindExistingMaskedMaterial@@YAPAUMaskedMaterial@@PBDI@Z 0041a970 f   maskedmaterial.obj
 0001:00019b50       ?MtlRaw_FindExisting@@YAPAULoadedMaterial@@PBDI@Z 0041ab50 f   materials.obj
 0001:00019bd0       ?MtlRaw_GetTechniqueName@@YA_NPBD0QAD@Z 0041abd0 f   materials.obj
 0001:00019c50       ?MtlRaw_GetShaderName@@YAPBDPBD0@Z 0041ac50 f   materials.obj
 0001:00019d00       ?MtlRaw_SetRefShaderNames@@YAXPAULoadedTechSet@@PBD1@Z 0041ad00 f   materials.obj
 0001:00019db0       ?MtlRaw_GetDefaultPrepassType@@YAIPBD@Z 0041adb0 f   materials.obj
 0001:00019e30       ?MtlRaw_LoadTechniqueSetInfo@@YAXPAULoadedTechSet@@I@Z 0041ae30 f   materials.obj
 0001:00019fa0       ?MtlRaw_GetTechniqueSetInfo@@YAPBULoadedTechSet@@PBDI@Z 0041afa0 f   materials.obj
 0001:0001a210       ?InitModelCollisionTree_r@@YAXHQBM0@Z 0041b210 f   modelcollision.obj
 0001:0001a2d0       ?FilterModelCollisionIntoTree@@YAXPAUModelCollision@@@Z 0041b2d0 f   modelcollision.obj
 0001:0001a3b0       ?BuildStaticModelCollTree@@YAPAUModelCollisionAabbTree@@HQAUModelCollisionTri@@QAY02M1@Z 0041b3b0 f   modelcollision.obj
 0001:0001a560       ?BuildStaticModelCollisionTri@@YAXPBUMaskedMaterial@@QBGQAY02$$CBMQAY01$$CBMPAUModelCollisionTri@@QAM5@Z 0041b560 f   modelcollision.obj
 0001:0001ace0       ?TraceModelCollisionTree_r@@YAXPBUModelCollisionAabbTree@@_NPAUTraceWork@@@Z 0041bce0 f   modelcollision.obj
 0001:0001ad70       ?TraceModelList@@YAXPBUModelCollision@@PAUTraceWork@@@Z 0041bd70 f   modelcollision.obj
 0001:0001aea0       ?TraceStaticModels_r@@YAXHQBM0PAUTraceWork@@@Z 0041bea0 f   modelcollision.obj
 0001:0001b190       ?GetDegammadImage@@YAXPBUGfxRawImage@@PAURadLightImage@@@Z 0041c190 f   pointlights.obj
 0001:0001b2a0       ?RegisterLightDef@@YAPAURadLightDef@@PBD@Z 0041c2a0 f   pointlights.obj
 0001:0001b390       ?SetUpPointLight@@YAPAURadPointLight@@HQBMM0PBD@Z 0041c390 f   pointlights.obj
 0001:0001ba90       ?PointLightSpotAndAngleAttenuation@@YAMHQBM0@Z 0041ca90 f   pointlights.obj
 0001:0001d9b0       ?ForEachQuantumWorkerThread@@YGKPAX@Z 0041e9b0 f   threads.obj
 0001:0001da10       ?ForEachQuantumMultiThreaded@@YAXP6AXHH@ZH@Z 0041ea10 f   threads.obj
 0001:0001dfb0       ?DObjDumpCreationInfo@@YAXPAUDObjModel_s@@I@Z 0041efb0 f   dobj.obj
 0001:0001e040       ?DObjCreateDuplicateParts@@YAXPAUDObj_s@@PAUDObjModel_s@@I@Z 0041f040 f   dobj.obj
 0001:0001e5f0       ?DObjComputeBounds@@YAXPAUDObj_s@@@Z 0041f5f0 f   dobj.obj
 0001:0001f0d0       ?GetControlAndDuplicatePartBits@@YAXPBUDObj_s@@QBH1PBHQAH3@Z 004200d0 f   dobj_skel.obj
 0001:0001f1e0       ?CalcSkelDuplicateBones@@YAPBEPBUXModel@@PAUDSkel@@HPBE@Z 004201e0 f   dobj_skel.obj
 0001:0001f260       ?CalcSkelRootBonesNoParentOrDuplicate@@YAXPBUXModel@@PAUDSkel@@HQAH@Z 00420260 f   dobj_skel.obj
 0001:0001f480       ?CalcSkelRootBonesWithParent@@YAXPBUXModel@@PAUDSkel@@IIQAHQBH@Z 00420480 f   dobj_skel.obj
 0001:0001f870       ?CalcSkelNonRootBones@@YAXPBUXModel@@PAUDSkel@@HQAHQBH@Z 00420870 f   dobj_skel.obj
 0001:00020ec0       ?MT_InitBits@@YAXXZ        00421ec0 f   scr_memorytree.obj
 0001:00020f30       ?MT_GetScore@@YAHH@Z       00421f30 f   scr_memorytree.obj
 0001:00020fb0       ?MT_AddMemoryNode@@YAXHH@Z 00421fb0 f   scr_memorytree.obj
 0001:000211c0       ?MT_RemoveMemoryNode@@YA_NHH@Z 004221c0 f   scr_memorytree.obj
 0001:00021370       ?MT_RemoveHeadMemoryNode@@YAXH@Z 00422370 f   scr_memorytree.obj
 0001:000215a0       ?MT_GetSize@@YAHH@Z        004225a0 f   scr_memorytree.obj
 0001:00021a80       ?GetRefString@@YAPAURefString@@I@Z 00422a80 f   scr_stringlist.obj
 0001:00021b80       ?GetHashCode@@YAIPBDI@Z    00422b80 f   scr_stringlist.obj
 0001:00022380       ?SL_FreeString@@YAXIPAURefString@@I@Z 00423380 f   scr_stringlist.obj
 0001:00022800       ?ConsumeQuatNoSwap@@YAXPAPBEPAF@Z 00423800 f   xmodel_load_obj.obj
 0001:000228c0       ?XModelCalcBasePose@@YAXPAUXModelPartsLoad@@@Z 004238c0 f   xmodel_load_obj.obj
 0001:00022a90       ?XModelPartsLoadFile@@YAPAUXModelPartsLoad@@PAUXModel@@PBDP6APAXH@Z@Z 00423a90 f   xmodel_load_obj.obj
 0001:00022f10       ?XModelLoadConfigFile@@YA_NPBDPAPBEPAUXModelConfig@@@Z 00423f10 f   xmodel_load_obj.obj
 0001:000230b0       ?XModelLoadCollData@@YAXPAPBEPAUXModel@@P6APAXH@ZPBD@Z 004240b0 f   xmodel_load_obj.obj
 0001:000233f0       ?XModelPartsPrecache@@YAPAUXModelPartsLoad@@PAUXModel@@PBDP6APAXH@Z@Z 004243f0 f   xmodel_load_obj.obj
 0001:00023480       ?XModelReadSurfaces@@YAXPAUXModel@@PBDPAUXModelSurfs@@QAHHPAPBEP6APAXH@Z@Z 00424480 f   xmodel_load_obj.obj
 0001:00023580       ?R_XModelSurfsLoadFile@@YAPAUXModelSurfs@@PAUXModel@@PBDP6APAXH@ZF1@Z 00424580 f   xmodel_load_obj.obj
 0001:00023760       ?XModelSurfsPrecache@@YAHPAUXModel@@PBDP6APAXH@ZF1PAUXModelSurfs@@@Z 00424760 f   xmodel_load_obj.obj
 0001:000239f0       ?IteratePointKMeans@@YAIQAY02$$CBMIQAY02MIPAM@Z 004249f0 f   xmodel_load_obj.obj
 0001:000243e0       ?XModelLoadFile@@YAPAUXModel@@PBDP6APAXH@Z1@Z 004253e0 f   xmodel_load_obj.obj
 0001:00024f00       ?ParseError@@YAXPBD@Z      00425f00 f   assertive.obj
 0001:00024f20       ?ReadLine@@YA_NPAU_iobuf@@@Z 00425f20 f   assertive.obj
 0001:00025040       ?ParseMapFile@@YA_NPAU_iobuf@@IPBD@Z 00426040 f   assertive.obj
 0001:000258e0       ?GetModuleBase@@YAIPBD@Z   004268e0 f   assertive.obj
 0001:000259a0       ?LoadMapFilesForDir@@YAXPBD@Z 004269a0 f   assertive.obj
 0001:00025ac0       ?LoadMapFiles@@YAHPAD@Z    00426ac0 f   assertive.obj
 0001:00025c60       ?CopyMessageToClipboard@@YAXXZ 00426c60 f   assertive.obj
 0001:00025ce0       ?AssertNotify@@YA_NHW4AssertOccurance@@@Z 00426ce0 f   assertive.obj
 0001:00025d50       ?Assert_BuildAssertMessage@@YAXPBD0HHHPAD@Z 00426d50 f   assertive.obj
 0001:000262d0       ?FS_BuildOSPathForThread@@YAXPBD00QADW4FsThread@@@Z 004272d0 f   com_files.obj
 0001:00026700       ?FS_SanitizeFilename@@YA_NPBDQADH@Z 00427700 f   com_files.obj
 0001:00026890       ?FS_FilesAreLoadedGlobally@@YA_NPBD@Z 00427890 f   com_files.obj
 0001:00026940       ?FS_FOpenFileReadForThread@@YAHPBDPAHW4FsThread@@@Z 00427940 f   com_files.obj
 0001:00027100       ?FS_LoadZipFile@@YAPAUiwd_t@@PADPBD@Z 00428100 f   com_files.obj
 0001:00027600       ?IwdFileLanguage@@YAPBDPBD@Z 00428600 f   com_files.obj
 0001:000276b0       ?iwdsort@@YAHPBX0@Z        004286b0 f   com_files.obj
 0001:00027750       ?FS_AddIwdFilesForGameDirectory@@YAXPBD0@Z 00428750 f   com_files.obj
 0001:00027a00       ?FS_AddGameDirectory@@YAXPBD0HH@Z 00428a00 f   com_files.obj
 0001:00027c10       ?FS_AddLocalizedGameDirectory@@YAXPBD0@Z 00428c10 f   com_files.obj
 0001:00027c40       ?FS_RegisterDvars@@YAXXZ   00428c40 f   com_files.obj
 0001:00028240       ?FS_GetDefaultConfig@@YAPBDXZ 00429240 f   com_files.obj
 0001:00029240       _Z_TryVirtualCommitInternal 0042a240 f   com_memory.obj
 0001:00029310       ?Z_MallocFailed@@YAXH@Z    0042a310 f   com_memory.obj
 0001:00029460       ?Hunk_FindDataForFileInternal@@YAPAXHPBDH@Z 0042a460 f   com_memory.obj
 0001:0002a2e0       ?generateHashValue@@YAJPBD@Z 0042b2e0 f   dvar.obj
 0001:0002a330       ?Dvar_CopyString@@YAXPBDPATDvarValue@@@Z 0042b330 f   dvar.obj
 0001:0002a370       ?Dvar_WeakCopyString@@YAXPBDPATDvarValue@@@Z 0042b370 f   dvar.obj
 0001:0002a3a0       ?Dvar_ShouldFreeCurrentString@@YA_NPAUdvar_s@@@Z 0042b3a0 f   dvar.obj
 0001:0002a3c0       ?Dvar_ShouldFreeLatchedString@@YA_NPAUdvar_s@@@Z 0042b3c0 f   dvar.obj
 0001:0002a3e0       ?Dvar_ShouldFreeResetString@@YA_NPAUdvar_s@@@Z 0042b3e0 f   dvar.obj
 0001:0002a400       ?Dvar_FreeString@@YAXPATDvarValue@@@Z 0042b400 f   dvar.obj
 0001:0002a420       ?Dvar_AssignCurrentStringValue@@YAXPAUdvar_s@@PATDvarValue@@PBD@Z 0042b420 f   dvar.obj
 0001:0002a500       ?Dvar_AssignLatchedStringValue@@YAXPAUdvar_s@@PATDvarValue@@PBD@Z 0042b500 f   dvar.obj
 0001:0002a5e0       ?Dvar_AssignResetStringValue@@YAXPAUdvar_s@@PATDvarValue@@PBD@Z 0042b5e0 f   dvar.obj
 0001:0002a6c0       ?Dvar_ValueToString@@YAPBDPBUdvar_s@@TDvarValue@@@Z 0042b6c0 f   dvar.obj
 0001:0002a930       ?Dvar_StringToBool@@YA_NPBD@Z 0042b930 f   dvar.obj
 0001:0002a970       ?Dvar_StringToInt@@YAHPBD@Z 0042b970 f   dvar.obj
 0001:0002a9a0       ?Dvar_StringToFloat@@YAMPBD@Z 0042b9a0 f   dvar.obj
 0001:0002a9e0       ?Dvar_StringToVec2@@YAXPBDQAM@Z 0042b9e0 f   dvar.obj
 0001:0002aa20       ?Dvar_StringToVec3@@YAXPBDQAM@Z 0042ba20 f   dvar.obj
 0001:0002aa80       ?Dvar_StringToVec4@@YAXPBDQAM@Z 0042ba80 f   dvar.obj
 0001:0002aad0       ?Dvar_StringToEnum@@YAHPBTDvarLimits@@PBD@Z 0042bad0 f   dvar.obj
 0001:0002abc0       ?Dvar_StringToColor@@YAXPBDQAE@Z 0042bbc0 f   dvar.obj
 0001:0002adb0       ?Dvar_StringToValue@@YA?ATDvarValue@@ETDvarLimits@@PBD@Z 0042bdb0 f   dvar.obj
 0001:0002af70       ?Dvar_ClampValueToDomain@@YA?ATDvarValue@@ET1@T1@TDvarLimits@@@Z 0042bf70 f   dvar.obj
 0001:0002b4e0       ?Dvar_VectorDomainToString@@YAXHTDvarLimits@@PADH@Z 0042c4e0 f   dvar.obj
 0001:0002b580       ?Dvar_DomainToString_Internal@@YAPBDETDvarLimits@@PADHPAH@Z 0042c580 f   dvar.obj
 0001:0002b930       ?Dvar_ValuesEqual@@YAHETDvarValue@@0@Z 0042c930 f   dvar.obj
 0001:0002bb40       ?Dvar_SetLatchedValue@@YAXPAUdvar_s@@TDvarValue@@@Z 0042cb40 f   dvar.obj
 0001:0002bc80       ?Dvar_SetVariant@@YAXPAUdvar_s@@TDvarValue@@W4DvarSetSource@@@Z 0042cc80 f   dvar.obj
 0001:0002c1c0       ?Dvar_PerformUnregistration@@YAXPAUdvar_s@@@Z 0042d1c0 f   dvar.obj
 0001:0002c300       ?Dvar_UpdateResetValue@@YAXPAUdvar_s@@TDvarValue@@@Z 0042d300 f   dvar.obj
 0001:0002c460       ?Dvar_UpdateValue@@YAXPAUdvar_s@@TDvarValue@@@Z 0042d460 f   dvar.obj
 0001:0002c620       ?Dvar_MakeExplicitType@@YAXPAUdvar_s@@PBDEGTDvarValue@@TDvarLimits@@@Z 0042d620 f   dvar.obj
 0001:0002c830       ?Dvar_GetReinterpretedResetValue@@YA?ATDvarValue@@PAUdvar_s@@T1@EGTDvarLimits@@@Z 0042d830 f   dvar.obj
 0001:0002c8d0       ?Dvar_ReinterpretDvar@@YAXPAUdvar_s@@PBDEGTDvarValue@@TDvarLimits@@@Z 0042d8d0 f   dvar.obj
 0001:0002c9b0       ?Dvar_Reregister@@YAXPAUdvar_s@@PBDEGTDvarValue@@TDvarLimits@@1@Z 0042d9b0 f   dvar.obj
 0001:0002ccb0       ?Dvar_RegisterNew@@YAPBUdvar_s@@PBDEGTDvarValue@@TDvarLimits@@0@Z 0042dcb0 f   dvar.obj
 0001:0002ced0       ?Dvar_RegisterVariant@@YAPBUdvar_s@@PBDEGTDvarValue@@TDvarLimits@@0@Z 0042ded0 f   dvar.obj
 0001:0002d190       ?Dvar_SetStringFromSource@@YAXPBUdvar_s@@PBDW4DvarSetSource@@@Z 0042e190 f   dvar.obj
 0001:0002d460       ?SkipWhitespace@@YAPBDPBDPAH@Z 0042e460 f   q_parse.obj
 0001:0002d4b0       ?Com_ParseCSV@@YAPADPAPBDH@Z 0042e4b0 f   q_parse.obj
 0001:0002d5a0       ?Com_ParseExt@@YAPADPAPBDH@Z 0042e5a0 f   q_parse.obj
 0001:0002e4e0       ?Sys_ListFilteredFiles@@YAXPAUHunkUser@@PBD11PAPADPAH@Z 0042f4e0 f   win_common.obj
 0001:0002e6b0       ?HasFileExtension@@YA_NPBD0@Z 0042f6b0 f   win_common.obj
 0001:0002ec50       _flush_pending             0042fc50 f   deflate.obj
 0001:0002eca0       _longest_match             0042fca0 f   deflate.obj
 0001:0002ee20       _fill_window               0042fe20 f   deflate.obj
 0001:0002eff0       _deflate_stored            0042fff0 f   deflate.obj
 0001:0002f1d0       _deflate_fast              004301d0 f   deflate.obj
 0001:0002f510       _deflate_slow              00430510 f   deflate.obj
 0001:00031620       _huft_build                00432620 f   inftrees.obj
 0001:00031e30       _init_block                00432e30 f   trees.obj
 0001:00031ea0       _pqdownheap                00432ea0 f   trees.obj
 0001:00031f70       _gen_bitlen                00432f70 f   trees.obj
 0001:00032190       _scan_tree                 00433190 f   trees.obj
 0001:00032280       _send_tree                 00433280 f   trees.obj
 0001:00032790       _send_all_trees            00433790 f   trees.obj
 0001:000329f0       _compress_block            004339f0 f   trees.obj
 0001:00032e00       _set_data_type             00433e00 f   trees.obj
 0001:00032e90       _bi_windup                 00433e90 f   trees.obj
 0001:00032f10       _copy_block                00433f10 f   trees.obj
 0001:00032fa0       _gen_codes                 00433fa0 f   trees.obj
 0001:00033030       _build_tree                00434030 f   trees.obj
 0001:00033230       _build_bl_tree             00434230 f   trees.obj
 0001:00033590       _unzlocal_SearchCentralDir 00434590 f   unzip.obj
 0001:00033720       _unzlocal_GetCurrentFileInfoInternal 00434720 f   unzip.obj
 0001:00033c40       _unzlocal_CheckCurrentFileCoherencyHeader 00434c40 f   unzip.obj
 0001:000342e0       ?Wavelet_ConsumeBits@@YAXGPAUWaveletDecode@@@Z 004352e0 f   r_image_wavelet.obj
 0001:00034380       ?Wavelet_DecodeValue@@YAHQBUWaveletHuffmanDecode@@GHPAUWaveletDecode@@@Z 00435380 f   r_image_wavelet.obj
 0001:00034430       ?Wavelet_AddDeltaToMipmap@@YAXPAEHPAUWaveletDecode@@QBH@Z 00435430 f   r_image_wavelet.obj
 0001:00034b70       ?Image_CopyBitmapData@@YAXPAUGfxRawImage@@PAUGfxImageFileHeader@@PAE@Z 00435b70 f   r_imagedecode.obj
 0001:00034e20       ?Image_CountMipmapsForFile@@YAHPAUGfxImageFileHeader@@@Z 00435e20 f   r_imagedecode.obj
 0001:00034e90       ?Image_DecodeWavelet@@YAXPAUGfxRawImage@@PAUGfxImageFileHeader@@PAEH@Z 00435e90 f   r_imagedecode.obj
 0001:00035010       ?Image_DecodeBitmap@@YAXPAUGfxRawImage@@PAUGfxImageFileHeader@@PAEH@Z 00436010 f   r_imagedecode.obj
 0001:00035100       ?Image_DecompressDxt1_Internal@@YAXPAUDdsBlock_Dxt1_t@@PAUGfxRawImage@@HH_N@Z 00436100 f   r_imagedecode.obj
 0001:00035730       ?Image_DecompressDxt1@@YAXPAEPAUGfxRawImage@@HH@Z 00436730 f   r_imagedecode.obj
 0001:00035750       ?Image_DecompressDxt3@@YAXPAEPAUGfxRawImage@@HH@Z 00436750 f   r_imagedecode.obj
 0001:00035950       ?Image_DecompressDxt5@@YAXPAEPAUGfxRawImage@@HH@Z 00436950 f   r_imagedecode.obj
 0001:00035d10       ?Image_CopyDxtcData@@YAXPAUGfxRawImage@@PAUGfxImageFileHeader@@PAE@Z 00436d10 f   r_imagedecode.obj
 0001:00035dd0       ?Image_DecodeDxtc@@YAXPAUGfxRawImage@@PAUGfxImageFileHeader@@PAEH@Z 00436dd0 f   r_imagedecode.obj
 0001:00036150       ?R_GetLightDefImage@@YAPBEPBEPAUGfxRawImage@@@Z 00437150 f   r_light_load_obj.obj
 0001:00036880       _swap                      00437880 f   LIBCMT:qsort.obj
 0001:000368b0       _shortsort                 004378b0 f   LIBCMT:qsort.obj
 0001:0003779a       __initterm                 0043879a f   LIBCMT:crt0dat.obj
 0001:000378d7       _doexit                    004388d7 f   LIBCMT:crt0dat.obj
 0001:000380d8       _vscan_fn                  004390d8 f   LIBCMT:sscanf.obj
 0001:00038ba1       _flsall                    00439ba1 f   LIBCMT:fflush.obj
 0001:00039318       ?CatchGuardHandler@@YA?AW4_EXCEPTION_DISPOSITION@@PAUEHExceptionRecord@@PAUCatchGuardRN@@PAX2@Z 0043a318 f   LIBCMT:trnsctrl.obj
 0001:0003941d       ?TranslatorGuardHandler@@YA?AW4_EXCEPTION_DISPOSITION@@PAUEHExceptionRecord@@PAUTranslatorGuardRN@@PAX2@Z 0043a41d f   LIBCMT:trnsctrl.obj
 0001:00039be7       __catch$??2@YAPAXIABUnothrow_t@std@@@Z$0 0043abe7 f   LIBCMT:newopnt.obj
 0001:0003a466       __onexit_nolock            0043b466 f   LIBCMT:onexit.obj
 0001:0003b471       _fast_error_exit           0043c471 f   LIBCMT:crt0.obj
 0001:0003b495       _check_managed_app         0043c495 f   LIBCMT:crt0.obj
 0001:0003b4d6       ___tmainCRTStartup         0043c4d6 f   LIBCMT:crt0.obj
 0001:0003b7f4       __shift                    0043c7f4 f   LIBCMT:cvt.obj
 0001:0003b82d       __cftoe2_l                 0043c82d f   LIBCMT:cvt.obj
 0001:0003bdf7       __cftof2_l                 0043cdf7 f   LIBCMT:cvt.obj
 0001:0003c21d       _fastcopy_I                0043d21d f   LIBCMT:p4_memcpy.obj
 0001:0003d399       ?CPtoLCID@@YAHH@Z          0043e399 f   LIBCMT:mbctype.obj
 0001:0003d3c8       ?setSBCS@@YAXPAUthreadmbcinfostruct@@@Z 0043e3c8 f   LIBCMT:mbctype.obj
 0001:0003d41d       ?setSBUpLow@@YAXPAUthreadmbcinfostruct@@@Z 0043e41d f   LIBCMT:mbctype.obj
 0001:0003d64b       ?getSystemCP@@YAHH@Z       0043e64b f   LIBCMT:mbctype.obj
 0001:0003dca8       __updatetlocinfoEx_nolock  0043eca8 f   LIBCMT:setlocal.obj
 0001:0003dd5c       __use_encode_pointer       0043ed5c f   LIBCMT:tidtable.obj
 0001:0003e3ce       _fastzero_I                0043f3ce f   LIBCMT:p4_memset.obj
 0001:0003eb26       _siglookup                 0043fb26 f   LIBCMT:winsig.obj
 0001:0003ed35       ___crtInitCritSecNoSpinCount@8 0043fd35 f   LIBCMT:initcrit.obj
 0001:0003eecf       _write_char                0043fecf f   LIBCMT:output.obj
 0001:0003ef02       _write_multi_char          0043ff02 f   LIBCMT:output.obj
 0001:0003ef26       _write_string              0043ff26 f   LIBCMT:output.obj
 0001:00040080       __unwind_handler4          00441080 f   LIBCMT:exsup4.obj
 0001:000402db       ___check_float_string      004412db f   LIBCMT:input.obj
 0001:0004032f       __inc                      0044132f f   LIBCMT:input.obj
 0001:00040345       __whiteout                 00441345 f   LIBCMT:input.obj
 0001:00040fb7       ?strtoxl@@YAKPAUlocaleinfo_struct@@PBDPAPBDHH@Z 00441fb7 f   LIBCMT:strtol.obj
 0001:000432a5       ?ExFilterRethrow@@YAHPAU_EXCEPTION_POINTERS@@@Z 004442a5 f   LIBCMT:frame.obj
 0001:00043363       ?IsInExceptionSpec@@YAEPAUEHExceptionRecord@@PBU_s_ESTypeList@@@Z 00444363 f   LIBCMT:frame.obj
 0001:000433dc       ?CallUnexpected@@YAXPBU_s_ESTypeList@@@Z 004443dc f   LIBCMT:frame.obj
 0001:0004340d       __catch$?CallUnexpected@@YAXPBU_s_ESTypeList@@@Z$0 0044440d f   LIBCMT:frame.obj
 0001:00043425       ?CallCatchBlock@@YAPAXPAUEHExceptionRecord@@PAUEHRegistrationNode@@PAU_CONTEXT@@PBU_s_FuncInfo@@PAXHK@Z 00444425 f   LIBCMT:frame.obj
 0001:000437d1       ?CatchIt@@YAXPAUEHExceptionRecord@@PAUEHRegistrationNode@@PAU_CONTEXT@@PAXPBU_s_FuncInfo@@PBU_s_HandlerType@@PBU_s_CatchableType@@PBU_s_TryBlockMapEntry@@H1E@Z 004447d1 f   LIBCMT:frame.obj
 0001:0004383d       ?FindHandlerForForeignException@@YAXPAUEHExceptionRecord@@PAUEHRegistrationNode@@PAU_CONTEXT@@PAXPBU_s_FuncInfo@@HH1@Z 0044483d f   LIBCMT:frame.obj
 0001:0004392f       ?FindHandler@@YAXPAUEHExceptionRecord@@PAUEHRegistrationNode@@PAU_CONTEXT@@PAXPBU_s_FuncInfo@@EH1@Z 0044492f f   LIBCMT:frame.obj
 0001:0004627c       ?__crtLCMapStringA_stat@@YAHPAUlocaleinfo_struct@@KKPBDHPADHHH@Z 0044727c f   LIBCMT:a_map.obj
 0001:00046c10       __tzset_nolock             00447c10 f   LIBCMT:tzset.obj
 0001:00046f59       _cvtdate                   00447f59 f   LIBCMT:tzset.obj
 0001:0004714e       __isindst_nolock           0044814e f   LIBCMT:tzset.obj
 0001:000479a7       _parse_cmdline             004489a7 f   LIBCMT:stdargv.obj
 0001:00048292       _has_osfxsr_set            00449292 f   LIBCMT:cpu_disp.obj
 0001:0004834f       ?__crtGetStringTypeA_stat@@YAHPAUlocaleinfo_struct@@KPBDHPAGHHH@Z 0044934f f   LIBCMT:a_str.obj
 0001:0004934e       __tsopen_nolock            0044a34e f   LIBCMT:open.obj
 0001:00049f60       __unwind_handler           0044af60 f   LIBCMT:exsup.obj
 0001:0004cadd       ?x_ismbbtype_l@@YAHPAUlocaleinfo_struct@@IHH@Z 0044dadd f   LIBCMT:ismbbyte.obj
 0001:0004d407       __hw_cw                    0044e407 f   LIBCMT:ieee87.obj
 0001:0004d495       ___hw_cw_sse2              0044e495 f   LIBCMT:ieee87.obj
 0001:0004de71       ?__crtCompareStringA_stat@@YAHPAUlocaleinfo_struct@@KKPBDH1HH@Z 0044ee71 f   LIBCMT:a_cmp.obj
 0001:0004e332       _findenv                   0044f332 f   LIBCMT:setenv.obj
 0001:0004e37f       _copy_environ              0044f37f f   LIBCMT:setenv.obj
 0001:0004e700       __ehhandler$_main          0044f700 f   cod2rad.obj
 0001:0004e71b       __ehhandler$??2@YAPAXIABUnothrow_t@std@@@Z 0044f71b f   LIBCMT:newopnt.obj
 0001:0004e736       __ehhandler$?CallUnexpected@@YAXPBU_s_ESTypeList@@@Z 0044f736 f   LIBCMT:frame.obj
 0001:0004e760       ??__EburnableCells@@YAXXZ  0044f760 f   bspfile.obj
 0001:0004e780       ??__EsLights@@YAXXZ        0044f780 f   oldgrid.obj
 0001:0004e790       ??__EsGridLightInfo@@YAXXZ 0044f790 f   oldgrid.obj
 0001:0004e7a0       ??__EsLightIndices@@YAXXZ  0044f7a0 f   oldgrid.obj
 0001:0004e7b0       ??__EsGridPoints@@YAXXZ    0044f7b0 f   oldgrid.obj
 0001:0004e7c0       ??__EsCellData@@YAXXZ      0044f7c0 f   oldgrid.obj
 0001:0004e7d0       ??__FsLights@@YAXXZ        0044f7d0 f   oldgrid.obj
 0001:0004e810       ??__FsGridLightInfo@@YAXXZ 0044f810 f   oldgrid.obj
 0001:0004e850       ??__FsLightIndices@@YAXXZ  0044f850 f   oldgrid.obj
 0001:0004e890       ??__FsGridPoints@@YAXXZ    0044f890 f   oldgrid.obj
 0001:0004e8f0       ??__FsCellData@@YAXXZ      0044f8f0 f   oldgrid.obj
 0001:0004e943       ??__Fnomem@?5???2@YAPAXI@Z@YAXXZ 0044f943 f   LIBCMT:new.obj
